"File: app.c         Assembler  Version HGASM0202      Page 1


   1  0000              ; Generated by holtek-gcc v3.19, Sat Oct 29 17:39:45 2022
   2  0000              ; 
   3  0000              ; Configuration:
   4  0000              ;       with long instruction
   5  0000              ;       Single ROM, Multi-RAM
   6  0000              ;       bits_per_rom_unit:16
   7  0000              ;       with mp1
   8  0000              ;       with tbhp, address(0x9)
   9  0000              ;          Use tabrd-const
  10  0000              ;       
  11  0000              ; SFR address of long-instruction arch:
  12  0000              ;    mp0 = -1,1,0
  13  0000              ;    mp1 = 4,3,2
  14  0000              ;    mp2 = 14,13,12
  15  0000              ;    tbp = 9,7,8
  16  0000              ;    acc = 5
  17  0000              ;    pcl = 6
  18  0000              ;    status = 10
  19  0000              ;    bp = 11
  20  0000              ;    intc = 17
  21  0000              ;       
  22  0000              ;       
  23  0000              ; use 'tabrdc' instead of 'tabrd'
  24  0000              ;       
  25  0000              
  26  0000              #pragma translator "holtek-gcc 4.6.4" "3.19" "build 20130711"
  27  0000              ; Rebuild 718
  28  0000              
  29  0000              ir equ [2]
  30  0000              mp equ [3]
  31  0000              sbp equ [4]
  32  0000              acc equ [5]
  33  0000              bp equ [11]
  34  0000              tblp equ [7]
  35  0000              tbhp equ [9]
  36  0000              status equ [10]
  37  0000              c equ [10].0
  38  0000              ac equ [10].1
  39  0000              z equ [10].2
  40  0000              ov equ [10].3
  41  0000              cz equ [10].6
  42  0000              sc equ [10].7
  43  0000              intc equ [17]
  44  0000              
  45  0000              extern ra:byte
  46  0000              extern rb:byte
  47  0000              extern rc:byte
  48  0000              extern rd:byte
  49  0000              extern re:byte
  50  0000              extern rf:byte
  51  0000              extern rg:byte
  52  0000              extern rh:byte
  53  0000              extern _Crom2Prom:near
  54  0000              extern _Crom2PromNext:near
  55  0000              
  56  0000              RAMBANK 0 @BITDATASEC, @BITDATASEC1
  57  0000              @HCCINIT	.section 'data'
  58  0000              @HCCINIT0	.section 'data'
  59  0000              @BITDATASEC	 .section 'data'
"File: app.ASM       Assembler  Version HGASM0202      Page 2

  60  0000              @BITDATASEC1	 .section 'data'
  61  0000              
  62  0000              #pragma debug scope 1 1
  63  0000              	extern __DELAY3:near
  64  0000              	extern __DELAYX3:near
  65  0000              	extern __DELAYX6:near
  66  0000              	extern __DELAYY5:near
  67  0000              	extern __DELAYY3:near
  68  0000              	extern _builtin_holtek_delay_2:byte
  69  0000              @crom	.section 'crom'
  70  0000              _LC0:
  71  0000              	db 043h,068h,065h,063h,06bh,069h,06eh,067h,020h,044h
  72  0005              	db 065h,076h,069h,063h,065h,020h,041h,064h,064h,072h
  73  000A              	db 065h,073h,073h,03ah,020h,0ah,00h
  74  000E              @crom	.section 'crom'
  75  000E              _LC1:
  76  000E              	db 044h,065h,076h,069h,063h,065h,020h,041h,064h,064h
  77  0013              	db 072h,020h,056h,061h,06ch,075h,065h,03ah,020h,00h
  78  0018              public _app_pair_status_check
  79  0018              #pragma debug scope 2 1

  10  0018              #line 10 "c:\users\user\documents\htk_project\qbell_doorbell_mb_v1_2_f9\app.c"
  10  0000              _app_pair_status_check .section 'code'
  10  0000              _app_pair_status_check proc
  12  0000              #line 12 "c:\users\user\documents\htk_project\qbell_doorbell_mb_v1_2_f9\app.c"
  12  0000  0F00     R  	mov a,low offset _LC0
  12  0001  0080     E  	mov _uart_printf_2[0],a
  12  0002  0F00     R  	mov a,high offset _LC0
  12  0003  0080     E  	mov _uart_printf_2[1],a
  12  0004  2000     E  	call _uart_printf
  13  0005              #line 13 "c:\users\user\documents\htk_project\qbell_doorbell_mb_v1_2_f9\app.c"
  13  0005  2000     E  	call _eepromDeviceAddrRead
  17  0006              #line 17 "c:\users\user\documents\htk_project\qbell_doorbell_mb_v1_2_f9\app.c"
  17  0006  0F00     R  	mov a,low offset _LC1
  17  0007  0080     E  	mov _uart_printf_2[0],a
  17  0008  0F00     R  	mov a,high offset _LC1
  17  0009  0080     E  	mov _uart_printf_2[1],a
  17  000A  2000     E  	call _uart_printf
  18  000B              #line 18 "c:\users\user\documents\htk_project\qbell_doorbell_mb_v1_2_f9\app.c"
  18  000B  0F00     E  	mov a,low (offset _intF+13)
  18  000C  0080     E  	mov _uart_printf_2[0],a
  18  000D  0F00     E  	mov a,high (offset _intF+13)
  18  000E  0080     E  	mov _uart_printf_2[1],a
  18  000F  2000     E  	call _uart_printf
  18  0010  0003        	ret
  18  0011              _app_pair_status_check endp
  18  0011              #line 18 "c:\users\user\documents\htk_project\qbell_doorbell_mb_v1_2_f9\app.c"
  18  0011              #pragma debug scope 1 1
  18  0018              @crom	.section 'crom'
  18  0018              _LC2:
  18  0018              	db 043h,068h,065h,063h,06bh,069h,06eh,067h,020h,044h
  18  001D              	db 065h,076h,069h,063h,065h,020h,041h,064h,064h,072h
  18  0022              	db 065h,073h,073h,03ah,020h,00h
  18  0025              @crom	.section 'crom'
  18  0025              _LC3:
  18  0025              	db 0ah,044h,065h,076h,069h,063h,065h,020h,043h,06fh
  18  002A              	db 070h,079h,020h,041h,064h,064h,072h,020h,041h,063h
  18  002F              	db 06bh,03ah,020h,00h
  18  0031              @crom	.section 'crom'
  18  0031              _LC4:
"File: app.c         Assembler  Version HGASM0202      Page 3

  18  0031              	db 0ah,054h,068h,069h,073h,020h,064h,065h,076h,069h
  18  0036              	db 063h,065h,020h,061h,064h,064h,072h,065h,073h,073h
  18  003B              	db 020h,069h,073h,020h,063h,06fh,070h,069h,065h,064h
  18  0040              	db 020h,061h,06ch,072h,065h,061h,064h,079h,0ah,00h
  18  0045              @crom	.section 'crom'
  18  0045              _LC5:
  18  0045              	db 044h,065h,076h,069h,063h,065h,020h,041h,064h,064h
  18  004A              	db 072h,065h,073h,073h,020h,043h,06fh,070h,079h,03ah
  18  004F              	db 020h,00h
  18  0050              @crom	.section 'crom'
  18  0050              _LC6:
  18  0050              	db 0ah,043h,06fh,06dh,070h,061h,072h,069h,06eh,067h
  18  0055              	db 020h,074h,068h,065h,020h,041h,064h,064h,072h,065h
  18  005A              	db 073h,073h,020h,061h,06eh,064h,020h,041h,064h,064h
  18  005F              	db 072h,065h,073h,073h,020h,063h,06fh,070h,079h,0ah
  18  0064              	db 00h
  18  0064              @crom	.section 'crom'
  18  0064              _LC7:
  18  0064              	db 041h,064h,064h,072h,065h,073h,073h,020h,04dh,061h
  18  0069              	db 074h,063h,068h,069h,06eh,067h,0ah,00h
  18  006D              @crom	.section 'crom'
  18  006D              _LC8:
  18  006D              	db 041h,064h,064h,072h,065h,073h,073h,020h,04eh,06fh
  18  0072              	db 074h,020h,04dh,061h,074h,063h,068h,069h,06eh,067h
  18  0077              	db 0ah,00h
  18  0078              @crom	.section 'crom'
  18  0078              _LC9:
  18  0078              	db 054h,068h,065h,020h,044h,065h,076h,069h,063h,065h
  18  007D              	db 020h,061h,064h,064h,072h,065h,073h,073h,020h,069h
  18  0082              	db 073h,020h,06eh,06fh,074h,020h,063h,06fh,070h,069h
  18  0087              	db 065h,064h,020h,079h,065h,074h,0ah,043h,068h,065h
  18  008C              	db 063h,06bh,069h,06eh,067h,020h,074h,068h,065h,020h
  18  0091              	db 066h,069h,072h,073h,074h,020h,062h,06fh,06fh,074h
  18  0096              	db 03ah,020h,00h
  18  0098              @crom	.section 'crom'
  18  0098              _LC10:
  18  0098              	db 044h,065h,076h,069h,063h,065h,020h,069h,073h,020h
  18  009D              	db 062h,06fh,06fh,074h,020h,066h,06fh,072h,020h,066h
  18  00A2              	db 069h,072h,073h,074h,020h,074h,069h,06dh,065h,02eh
  18  00A7              	db 00h
  18  00A7              @crom	.section 'crom'
  18  00A7              _LC11:
  18  00A7              	db 054h,068h,069h,073h,020h,044h,065h,076h,069h,063h
  18  00AC              	db 065h,020h,069h,073h,020h,06eh,06fh,074h,020h,042h
  18  00B1              	db 06fh,06fh,074h,069h,06eh,067h,020h,066h,06fh,072h
  18  00B6              	db 020h,066h,069h,072h,073h,074h,020h,074h,069h,06dh
  18  00BB              	db 065h,02ch,020h,073h,06fh,06dh,065h,020h,06fh,074h
  18  00C0              	db 068h,065h,072h,020h,069h,073h,073h,075h,065h,0ah
  18  00C5              	db 00h
  18  00C6              public _app_eeprom_addr_check
  18  00C6              #pragma debug scope 3 1
  26  00C6              #line 26 "c:\users\user\documents\htk_project\qbell_doorbell_mb_v1_2_f9\app.c"
  26  0000              _app_eeprom_addr_check .section 'code'
  26  0000              _app_eeprom_addr_check proc
  27  0000              #line 27 "c:\users\user\documents\htk_project\qbell_doorbell_mb_v1_2_f9\app.c"
  27  0000  0F00     R  	mov a,low offset _LC2
  27  0001  0080     E  	mov _uart_printf_2[0],a
  27  0002  0F00     R  	mov a,high offset _LC2
  27  0003  0080     E  	mov _uart_printf_2[1],a
  27  0004  2000     E  	call _uart_printf
"File: app.c         Assembler  Version HGASM0202      Page 4

  28  0005              #line 28 "c:\users\user\documents\htk_project\qbell_doorbell_mb_v1_2_f9\app.c"
  28  0005  2000     E  	call _eepromDeviceAddrRead
  29  0006              #line 29 "c:\users\user\documents\htk_project\qbell_doorbell_mb_v1_2_f9\app.c"
  29  0006  0F00     E  	mov a,low (offset _intF+13)
  29  0007  0080     E  	mov _uart_printf_2[0],a
  29  0008  0F00     E  	mov a,high (offset _intF+13)
  29  0009  0080     E  	mov _uart_printf_2[1],a
  29  000A  2000     E  	call _uart_printf
  30  000B              #line 30 "c:\users\user\documents\htk_project\qbell_doorbell_mb_v1_2_f9\app.c"
  30  000B  2000     E  	call _eepromDeviceAddrCpyAckRead
  31  000C              #line 31 "c:\users\user\documents\htk_project\qbell_doorbell_mb_v1_2_f9\app.c"
  31  000C  0F00     R  	mov a,low offset _LC3
  31  000D  0080     E  	mov _uart_printf_2[0],a
  31  000E  0F00     R  	mov a,high offset _LC3
  31  000F  0080     E  	mov _uart_printf_2[1],a
  31  0010  2000     E  	call _uart_printf
  32  0011              #line 32 "c:\users\user\documents\htk_project\qbell_doorbell_mb_v1_2_f9\app.c"
  32  0011  0700     E  	mov a,_intF[33]
  32  0012  2000     E  	call _uart_send
  33  0013              #line 33 "c:\users\user\documents\htk_project\qbell_doorbell_mb_v1_2_f9\app.c"
  33  0013  0700     E  	mov a,_intF[33]
  33  0014  0A08        	sub a,8
  33  0015  390A        	snz z
  33  0016  2800     R  	jmp _L3
  35  0017              #line 35 "c:\users\user\documents\htk_project\qbell_doorbell_mb_v1_2_f9\app.c"
  35  0017  0F00     R  	mov a,low offset _LC4
  35  0018  0080     E  	mov _uart_printf_2[0],a
  35  0019  0F00     R  	mov a,high offset _LC4
  35  001A  0080     E  	mov _uart_printf_2[1],a
  35  001B  2000     E  	call _uart_printf
  36  001C              #line 36 "c:\users\user\documents\htk_project\qbell_doorbell_mb_v1_2_f9\app.c"
  36  001C  2000     E  	call _eepromDeviceAddrCpyRead
  37  001D              #line 37 "c:\users\user\documents\htk_project\qbell_doorbell_mb_v1_2_f9\app.c"
  37  001D  0F00     R  	mov a,low offset _LC5
  37  001E  0080     E  	mov _uart_printf_2[0],a
  37  001F  0F00     R  	mov a,high offset _LC5
  37  0020  0080     E  	mov _uart_printf_2[1],a
  37  0021  2000     E  	call _uart_printf
  38  0022              #line 38 "c:\users\user\documents\htk_project\qbell_doorbell_mb_v1_2_f9\app.c"
  38  0022  0F00     E  	mov a,low (offset _intF+34)
  38  0023  0080     E  	mov _uart_printf_2[0],a
  38  0024  0F00     E  	mov a,high (offset _intF+34)
  38  0025  0080     E  	mov _uart_printf_2[1],a
  38  0026  2000     E  	call _uart_printf
  39  0027              #line 39 "c:\users\user\documents\htk_project\qbell_doorbell_mb_v1_2_f9\app.c"
  39  0027  0F00     R  	mov a,low offset _LC6
  39  0028  0080     E  	mov _uart_printf_2[0],a
  39  0029  0F00     R  	mov a,high offset _LC6
  39  002A  0080     E  	mov _uart_printf_2[1],a
  39  002B  2000     E  	call _uart_printf
  41  002C              #line 41 "c:\users\user\documents\htk_project\qbell_doorbell_mb_v1_2_f9\app.c"
  41  002C  0F05        	mov a,5
  41  002D  0080     E  	mov _memcmp_2[4],a
  41  002E  1F00     E  	clr _memcmp_2[5]
  41  002F  0F00     E  	mov a,low (offset _intF+34)
  41  0030  0080     E  	mov _memcmp_2[2],a
  41  0031  0F00     E  	mov a,high (offset _intF+34)
  41  0032  0080     E  	mov _memcmp_2[3],a
  41  0033  0F00     E  	mov a,low (offset _intF+13)
  41  0034  0080     E  	mov _memcmp_2[0],a
"File: app.c         Assembler  Version HGASM0202      Page 5

  41  0035  0F00     E  	mov a,high (offset _intF+13)
  41  0036  0080     E  	mov _memcmp_2[1],a
  41  0037  2000     E  	call _memcmp
  41  0038  0700     E  	mov a,ra
  41  0039  0500     E  	or a,rb
  41  003A  390A        	snz z
  41  003B  2800     R  	jmp _L4
  43  003C              #line 43 "c:\users\user\documents\htk_project\qbell_doorbell_mb_v1_2_f9\app.c"
  43  003C  0F00     R  	mov a,low offset _LC7
  43  003D  0080     E  	mov _uart_printf_2[0],a
  43  003E  0F00     R  	mov a,high offset _LC7
  43  003F  0080     E  	mov _uart_printf_2[1],a
  43  0040  2000     E  	call _uart_printf
  43  0041  2800     R  	jmp _L8
  43  0042              _L4:
  48  0042              #line 48 "c:\users\user\documents\htk_project\qbell_doorbell_mb_v1_2_f9\app.c"
  48  0042  0F00     R  	mov a,low offset _LC8
  48  0043  0080     E  	mov _uart_printf_2[0],a
  48  0044  0F00     R  	mov a,high offset _LC8
  48  0045  0080     E  	mov _uart_printf_2[1],a
  48  0046  2800     R  	jmp _L7
  48  0047              _L3:
  54  0047              #line 54 "c:\users\user\documents\htk_project\qbell_doorbell_mb_v1_2_f9\app.c"
  54  0047  0F00     R  	mov a,low offset _LC9
  54  0048  0080     E  	mov _uart_printf_2[0],a
  54  0049  0F00     R  	mov a,high offset _LC9
  54  004A  0080     E  	mov _uart_printf_2[1],a
  54  004B  2000     E  	call _uart_printf
  55  004C              #line 55 "c:\users\user\documents\htk_project\qbell_doorbell_mb_v1_2_f9\app.c"
  55  004C  0700     E  	mov a,_intF[13]
  55  004D  2000     E  	call _uart_send
  56  004E              #line 56 "c:\users\user\documents\htk_project\qbell_doorbell_mb_v1_2_f9\app.c"
  56  004E  0700     E  	mov a,_intF[13]
  56  004F  0A31        	sub a,49
  56  0050  390A        	snz z
  56  0051  2800     R  	jmp _L6
  58  0052              #line 58 "c:\users\user\documents\htk_project\qbell_doorbell_mb_v1_2_f9\app.c"
  58  0052  0F00     R  	mov a,low offset _LC10
  58  0053  0080     E  	mov _uart_printf_2[0],a
  58  0054  0F00     R  	mov a,high offset _LC10
  58  0055  0080     E  	mov _uart_printf_2[1],a
  58  0056  2000     E  	call _uart_printf
  59  0057              #line 59 "c:\users\user\documents\htk_project\qbell_doorbell_mb_v1_2_f9\app.c"
  59  0057  0F30        	mov a,48
  59  0058  0080     E  	mov _eeprom_write_2[0],a
  59  0059  0F00        	mov a,0
  59  005A  2000     E  	call _eeprom_write
  60  005B              #line 60 "c:\users\user\documents\htk_project\qbell_doorbell_mb_v1_2_f9\app.c"
  60  005B  0F01        	mov a,1
  60  005C  0080     E  	mov _delay_2[0],a
  60  005D  1F00     E  	clr _delay_2[1]
  60  005E  2000     E  	call _delay
  61  005F              #line 61 "c:\users\user\documents\htk_project\qbell_doorbell_mb_v1_2_f9\app.c"
  61  005F  2000     E  	call _eepromDeviceAddrRead
  62  0060              #line 62 "c:\users\user\documents\htk_project\qbell_doorbell_mb_v1_2_f9\app.c"
  62  0060  0F01        	mov a,1
  62  0061  0080     E  	mov _delay_2[0],a
  62  0062  1F00     E  	clr _delay_2[1]
  62  0063  2000     E  	call _delay
  63  0064              #line 63 "c:\users\user\documents\htk_project\qbell_doorbell_mb_v1_2_f9\app.c"
"File: app.c         Assembler  Version HGASM0202      Page 6

  63  0064  0F08        	mov a,8
  63  0065  2000     E  	call _eepromDeviceAddrCpyAckWrite
  64  0066              #line 64 "c:\users\user\documents\htk_project\qbell_doorbell_mb_v1_2_f9\app.c"
  64  0066  0F01        	mov a,1
  64  0067  0080     E  	mov _delay_2[0],a
  64  0068  1F00     E  	clr _delay_2[1]
  64  0069  2000     E  	call _delay
  65  006A              #line 65 "c:\users\user\documents\htk_project\qbell_doorbell_mb_v1_2_f9\app.c"
  65  006A  2000     E  	call _eepromDeviceAddrCpyWrite
  66  006B              #line 66 "c:\users\user\documents\htk_project\qbell_doorbell_mb_v1_2_f9\app.c"
  66  006B  0F01        	mov a,1
  66  006C  0080     E  	mov _delay_2[0],a
  66  006D  1F00     E  	clr _delay_2[1]
  66  006E  2000     E  	call _delay
  66  006F              _L8:
  67  006F              #line 67 "c:\users\user\documents\htk_project\qbell_doorbell_mb_v1_2_f9\app.c"
  67  006F  1F00     E  	clr _intF[39]
  67  0070  2800     R  	jmp _L2
  67  0071              _L6:
  72  0071              #line 72 "c:\users\user\documents\htk_project\qbell_doorbell_mb_v1_2_f9\app.c"
  72  0071  0F00     R  	mov a,low offset _LC11
  72  0072  0080     E  	mov _uart_printf_2[0],a
  72  0073  0F00     R  	mov a,high offset _LC11
  72  0074  0080     E  	mov _uart_printf_2[1],a
  72  0075              _L7:
  72  0075  2000     E  	call _uart_printf
  73  0076              #line 73 "c:\users\user\documents\htk_project\qbell_doorbell_mb_v1_2_f9\app.c"
  73  0076  0F01        	mov a,1
  73  0077  0080     E  	mov _intF[39],a
  73  0078              _L2:
  73  0078  0003        	ret
  73  0079              _app_eeprom_addr_check endp
  73  0079              #line 73 "c:\users\user\documents\htk_project\qbell_doorbell_mb_v1_2_f9\app.c"
  73  0079              #pragma debug scope 1 1
  73  0079              ___pa equ [20]
  73  0079              public _rgb_blink
  73  0079              #pragma debug scope 4 1
 235  0079              #line 235 "c:\users\user\documents\htk_project\qbell_doorbell_mb_v1_2_f9\app.c"
 235  0000              _rgb_blink .section 'code'
 235  0000              _rgb_blink proc
 235  0000  00              local _rgb_blink_2 db 1 dup(?)	; 0,1
 235  0000  0080     E  	mov ra,a
 235  0001  0080     R  	mov _rgb_blink_2[0],a
 235  0002              #pragma debug variable 8 4 _rgb_blink_2+0 "color"
 236  0002              #line 236 "c:\users\user\documents\htk_project\qbell_doorbell_mb_v1_2_f9\app.c"
 236  0002  0700     E  	mov a,ra
 236  0003  0A01        	sub a,1
 236  0004  3D0A        	sz z
 236  0005  2800     R  	jmp _L12
 236  0006  0A01        	sub a,(2)-(1)
 236  0007  3D0A        	sz z
 236  0008  2800     R  	jmp _L13
 236  0009              #line 236 "c:\users\user\documents\htk_project\qbell_doorbell_mb_v1_2_f9\app.c"
 236  0009  0700     E  	mov a,ra
 236  000A  0A03        	sub a,3
 236  000B  390A        	snz z
 236  000C  2800     R  	jmp _L16
 251  000D              #line 251 "c:\users\user\documents\htk_project\qbell_doorbell_mb_v1_2_f9\app.c"
 251  000D  3394        	set [20].7
 252  000E              #line 252 "c:\users\user\documents\htk_project\qbell_doorbell_mb_v1_2_f9\app.c"
"File: app.c         Assembler  Version HGASM0202      Page 7

 252  000E  3594        	clr [20].3
 252  000F  2800     R  	jmp _L18
 252  0010              _L12:
 239  0010              #line 239 "c:\users\user\documents\htk_project\qbell_doorbell_mb_v1_2_f9\app.c"
 239  0010  3794        	clr [20].7
 239  0011  2800     R  	jmp _L17
 239  0012              _L13:
 245  0012              #line 245 "c:\users\user\documents\htk_project\qbell_doorbell_mb_v1_2_f9\app.c"
 245  0012  3394        	set [20].7
 246  0013              #line 246 "c:\users\user\documents\htk_project\qbell_doorbell_mb_v1_2_f9\app.c"
 246  0013  3194        	set [20].3
 247  0014              #line 247 "c:\users\user\documents\htk_project\qbell_doorbell_mb_v1_2_f9\app.c"
 247  0014  3714        	clr [20].6
 248  0015              #line 248 "c:\users\user\documents\htk_project\qbell_doorbell_mb_v1_2_f9\app.c"
 248  0015  2800     R  	jmp _L10
 248  0016              _L16:
 248  0016              #pragma debug scope 5 4
 248  0016              ;begin block, line: 248.-1
 248  0016              #pragma debug scope 6 5
 248  0016              ;begin block, line: 248.-1
 257  0016              #line 257 "c:\users\user\documents\htk_project\qbell_doorbell_mb_v1_2_f9\app.c"
 257  0016  3394        	set [20].7
 257  0017              _L17:
 258  0017              #line 258 "c:\users\user\documents\htk_project\qbell_doorbell_mb_v1_2_f9\app.c"
 258  0017  3194        	set [20].3
 258  0018              _L18:
 259  0018              #line 259 "c:\users\user\documents\htk_project\qbell_doorbell_mb_v1_2_f9\app.c"
 259  0018  3314        	set [20].6
 259  0019              _L10:
 259  0019              #pragma debug scope 5 4
 259  0019              #pragma debug scope 4 1
 259  0019  0003        	ret
 259  001A              _rgb_blink endp
 259  001A              #line 259 "c:\users\user\documents\htk_project\qbell_doorbell_mb_v1_2_f9\app.c"
 259  001A              #pragma debug scope 1 1
 259  001A              public _LED
 259  001A              #pragma debug scope 7 1
 265  001A              #line 265 "c:\users\user\documents\htk_project\qbell_doorbell_mb_v1_2_f9\app.c"
 265  0000              _LED .section 'code'
 265  0000              _LED proc
 265  0000  00              local _LED_2 db 1 dup(?)	; 0,1
 265  0000  0080     E  	mov ra,a
 265  0001              #pragma debug variable 8 7 _LED_2+0 "mode"
 266  0001              #line 266 "c:\users\user\documents\htk_project\qbell_doorbell_mb_v1_2_f9\app.c"
 266  0001  0700     E  	mov a,ra
 266  0002  0A00        	sub a,0
 266  0003  3D0A        	sz z
 266  0004  2800     R  	jmp _L21
 266  0005  0A01        	sub a,(1)-(0)
 266  0006  3D0A        	sz z
 266  0007  2800     R  	jmp _L22
 266  0008              #line 266 "c:\users\user\documents\htk_project\qbell_doorbell_mb_v1_2_f9\app.c"
 266  0008  0700     E  	mov a,ra
 266  0009  0A02        	sub a,2
 266  000A  3D0A        	sz z
 266  000B  2800     R  	jmp _L23
 266  000C  0A01        	sub a,(3)-(2)
 266  000D  3D0A        	sz z
 266  000E  2800     R  	jmp _L25
 266  000F  0700     E  	mov a,ra
"File: app.c         Assembler  Version HGASM0202      Page 8

 266  0010  0A04        	sub a,4
 266  0011  3D0A        	sz z
 266  0012  2800     R  	jmp _L25
 266  0013  0700     E  	mov a,ra
 266  0014  0A05        	sub a,5
 266  0015  390A        	snz z
 266  0016  2800     R  	jmp _L19
 266  0017  2800     R  	jmp _L25
 266  0018              _L21:
 269  0018              #line 269 "c:\users\user\documents\htk_project\qbell_doorbell_mb_v1_2_f9\app.c"
 269  0018  0F00        	mov a,0
 269  0019  2800     R  	jmp _L27
 269  001A              _L22:
 273  001A              #line 273 "c:\users\user\documents\htk_project\qbell_doorbell_mb_v1_2_f9\app.c"
 273  001A  0F02        	mov a,2
 273  001B  2800     R  	jmp _L27
 273  001C              _L23:
 277  001C              #line 277 "c:\users\user\documents\htk_project\qbell_doorbell_mb_v1_2_f9\app.c"
 277  001C  0F03        	mov a,3
 277  001D  2800     R  	jmp _L27
 277  001E              _L25:
 289  001E              #line 289 "c:\users\user\documents\htk_project\qbell_doorbell_mb_v1_2_f9\app.c"
 289  001E  0F01        	mov a,1
 289  001F              _L27:
 289  001F  2000     R  	call _rgb_blink
 289  0020              _L19:
 289  0020  0003        	ret
 289  0021              _LED endp
 289  0021              #line 289 "c:\users\user\documents\htk_project\qbell_doorbell_mb_v1_2_f9\app.c"
 289  0021              #pragma debug scope 1 1
 289  00C6              @crom	.section 'crom'
 289  00C6              _LC12:
 289  00C6              	db 049h,06dh,020h,068h,065h,072h,065h,020h,064h,06fh
 289  00CB              	db 06fh,064h,0ah,00h
 289  00CD              ___intc0 equ [17]
 289  00CD              @crom	.section 'crom'
 289  00CD              _LC13:
 289  00CD              	db 042h,075h,074h,074h,06fh,06eh,020h,050h,072h,065h
 289  00D2              	db 073h,073h,065h,064h,0ah,00h
 289  00D5              @crom	.section 'crom'
 289  00D5              _LC14:
 289  00D5              	db 041h,044h,043h,020h,056h,061h,06ch,075h,065h,03ah
 289  00DA              	db 020h,00h
 289  00DB              @crom	.section 'crom'
 289  00DB              _LC15:
 289  00DB              	db 0ah,00h
 289  00DC              @crom	.section 'crom'
 289  00DC              _LC16:
 289  00DC              	db 046h,075h,06ch,06ch,020h,042h,061h,074h,074h,065h
 289  00E1              	db 072h,079h,0ah,00h
 289  00E3              @crom	.section 'crom'
 289  00E3              _LC17:
 289  00E3              	db 04ch,06fh,077h,020h,042h,061h,074h,074h,065h,072h
 289  00E8              	db 079h,020h,056h,06fh,06ch,074h,061h,067h,065h,0ah
 289  00ED              	db 00h
 289  00ED              @crom	.section 'crom'
 289  00ED              _LC18:
 289  00ED              	db 041h,076h,065h,072h,061h,067h,065h,020h,042h,061h
 289  00F2              	db 074h,074h,065h,072h,079h,020h,056h,06fh,06ch,074h
 289  00F7              	db 061h,067h,065h,0ah,00h
"File: app.c         Assembler  Version HGASM0202      Page 9

 289  00FA              @crom	.section 'crom'
 289  00FA              _LC19:
 289  00FA              	db 047h,06fh,069h,06eh,067h,020h,074h,06fh,020h,053h
 289  00FF              	db 06ch,065h,065h,070h,020h,04dh,06fh,064h,065h,0ah
 289  0104              	db 00h
 289  0104              public _app
 289  0104              #pragma debug scope 8 1
  81  0104              #line 81 "c:\users\user\documents\htk_project\qbell_doorbell_mb_v1_2_f9\app.c"
  81  0000              _app .section 'code'
  81  0000              _app proc
  81  0000  000C[           local _app_2 db 12 dup(?)	; 0,12
            00
            ]
  87  000C              #line 87 "c:\users\user\documents\htk_project\qbell_doorbell_mb_v1_2_f9\app.c"
  87  0000  1E00     E  	snz _intF[31]
  87  0001  2800     R  	jmp _L30
  90  0002              #line 90 "c:\users\user\documents\htk_project\qbell_doorbell_mb_v1_2_f9\app.c"
  90  0002  0F7C        	mov a,124
  90  0003  0200     E  	sub a,_Mflag[3]
  90  0004  3C0A        	sz c
  90  0005  2800     R  	jmp _L30
  92  0006              #line 92 "c:\users\user\documents\htk_project\qbell_doorbell_mb_v1_2_f9\app.c"
  92  0006  1F00     E  	clr _Mflag[3]
  93  0007              #line 93 "c:\users\user\documents\htk_project\qbell_doorbell_mb_v1_2_f9\app.c"
  93  0007  1480     E  	inc _Mflag[4]
  94  0008              #line 94 "c:\users\user\documents\htk_project\qbell_doorbell_mb_v1_2_f9\app.c"
  94  0008  0F00     R  	mov a,low offset _LC12
  94  0009  0080     E  	mov _uart_printf_2[0],a
  94  000A  0F00     R  	mov a,high offset _LC12
  94  000B  0080     E  	mov _uart_printf_2[1],a
  94  000C  2000     E  	call _uart_printf
  95  000D              #line 95 "c:\users\user\documents\htk_project\qbell_doorbell_mb_v1_2_f9\app.c"
  95  000D  0F02        	mov a,2
  95  000E  0200     E  	sub a,_Mflag[4]
  95  000F  3C0A        	sz c
  95  0010  2800     R  	jmp _L30
  97  0011              #line 97 "c:\users\user\documents\htk_project\qbell_doorbell_mb_v1_2_f9\app.c"
  97  0011  1F00     E  	clr _Mflag[4]
  98  0012              #line 98 "c:\users\user\documents\htk_project\qbell_doorbell_mb_v1_2_f9\app.c"
  98  0012  1F00     E  	clr _Mflag[3]
  99  0013              #line 99 "c:\users\user\documents\htk_project\qbell_doorbell_mb_v1_2_f9\app.c"
  99  0013  1F00     E  	clr _intF[31]
  99  0014              _L30:
 104  0014              #line 104 "c:\users\user\documents\htk_project\qbell_doorbell_mb_v1_2_f9\app.c"
 104  0014  1080     E  	sz _intF[32]
 104  0015  2800     R  	jmp _L32
 104  0016  3E94        	sz [20].5
 104  0017  2800     R  	jmp _L33
 104  0018              _L32:
 104  0018              #pragma debug scope 9 8
 104  0018              ;begin block, line: 104.-1
 104  0018              #pragma debug variable 10 9 _app_2+10 "adcBattValue"
 104  0018              #pragma debug array 42 8 10 9
 104  0018              #pragma debug array 42 8 10 9
 104  0018              #pragma debug variable 42 9 _app_2+0 "value"
 106  0018              #line 106 "c:\users\user\documents\htk_project\qbell_doorbell_mb_v1_2_f9\app.c"
 106  0018  3011        	set [17].0
 107  0019              #line 107 "c:\users\user\documents\htk_project\qbell_doorbell_mb_v1_2_f9\app.c"
 107  0019  1F00     E  	clr _intF[32]
 108  001A              #line 108 "c:\users\user\documents\htk_project\qbell_doorbell_mb_v1_2_f9\app.c"
"File: app.c         Assembler  Version HGASM0202      Page 10

 108  001A  0F05        	mov a,5
 108  001B  2000     R  	call _LED
 109  001C              #line 109 "c:\users\user\documents\htk_project\qbell_doorbell_mb_v1_2_f9\app.c"
 109  001C  2000     E  	call _adc_getValue
 109  001D  0700     E  	mov a,ra
 109  001E  0080     R  	mov _app_2[10],a
 109  001F  0700     E  	mov a,rb
 109  0020  0080     R  	mov _app_2[11],a
 111  0021              #line 111 "c:\users\user\documents\htk_project\qbell_doorbell_mb_v1_2_f9\app.c"
 111  0021  0F0A        	mov a,10
 111  0022  0080     E  	mov _itoa_2[4],a
 111  0023  1F00     E  	clr _itoa_2[5]
 111  0024  0F00     R  	mov a,low offset _app_2
 111  0025  0080     E  	mov _itoa_2[2],a
 111  0026  0F00     R  	mov a,high offset _app_2
 111  0027  0080     E  	mov _itoa_2[3],a
 111  0028  0700     R  	mov a,_app_2[10]
 111  0029  0080     E  	mov _itoa_2[0],a
 111  002A  0700     R  	mov a,_app_2[11]
 111  002B  0080     E  	mov _itoa_2[1],a
 111  002C  2000     E  	call _itoa
 112  002D              #line 112 "c:\users\user\documents\htk_project\qbell_doorbell_mb_v1_2_f9\app.c"
 112  002D  0F00     R  	mov a,low offset _LC13
 112  002E  0080     E  	mov _uart_printf_2[0],a
 112  002F  0F00     R  	mov a,high offset _LC13
 112  0030  0080     E  	mov _uart_printf_2[1],a
 112  0031  2000     E  	call _uart_printf
 113  0032              #line 113 "c:\users\user\documents\htk_project\qbell_doorbell_mb_v1_2_f9\app.c"
 113  0032  0F00     R  	mov a,low offset _LC14
 113  0033  0080     E  	mov _uart_printf_2[0],a
 113  0034  0F00     R  	mov a,high offset _LC14
 113  0035  0080     E  	mov _uart_printf_2[1],a
 113  0036  2000     E  	call _uart_printf
 114  0037              #line 114 "c:\users\user\documents\htk_project\qbell_doorbell_mb_v1_2_f9\app.c"
 114  0037  0F00     R  	mov a,low offset _app_2
 114  0038  0080     E  	mov _uart_printf_2[0],a
 114  0039  0F00     R  	mov a,high offset _app_2
 114  003A  0080     E  	mov _uart_printf_2[1],a
 114  003B  2000     E  	call _uart_printf
 115  003C              #line 115 "c:\users\user\documents\htk_project\qbell_doorbell_mb_v1_2_f9\app.c"
 115  003C  0F00     R  	mov a,low offset _LC15
 115  003D  0080     E  	mov _uart_printf_2[0],a
 115  003E  0F00     R  	mov a,high offset _LC15
 115  003F  0080     E  	mov _uart_printf_2[1],a
 115  0040  2000     E  	call _uart_printf
 123  0041              #line 123 "c:\users\user\documents\htk_project\qbell_doorbell_mb_v1_2_f9\app.c"
 123  0041  0F01        	mov a,1
 123  0042  2000     E  	call _lvd_mode_select
 124  0043              #line 124 "c:\users\user\documents\htk_project\qbell_doorbell_mb_v1_2_f9\app.c"
 124  0043  0F01        	mov a,1
 124  0044  0080     E  	mov _delay_2[0],a
 124  0045  1F00     E  	clr _delay_2[1]
 124  0046  2000     E  	call _delay
 125  0047              #line 125 "c:\users\user\documents\htk_project\qbell_doorbell_mb_v1_2_f9\app.c"
 125  0047  0F01        	mov a,1
 125  0048  2000     E  	call _lvd_read_select
 126  0049              #line 126 "c:\users\user\documents\htk_project\qbell_doorbell_mb_v1_2_f9\app.c"
 126  0049  0F01        	mov a,1
 126  004A  0080     E  	mov _delay_2[0],a
 126  004B  1F00     E  	clr _delay_2[1]
"File: app.c         Assembler  Version HGASM0202      Page 11

 126  004C  2000     E  	call _delay
 127  004D              #line 127 "c:\users\user\documents\htk_project\qbell_doorbell_mb_v1_2_f9\app.c"
 127  004D  0F02        	mov a,2
 127  004E  2000     E  	call _lvd_mode_select
 128  004F              #line 128 "c:\users\user\documents\htk_project\qbell_doorbell_mb_v1_2_f9\app.c"
 128  004F  0F01        	mov a,1
 128  0050  0080     E  	mov _delay_2[0],a
 128  0051  1F00     E  	clr _delay_2[1]
 128  0052  2000     E  	call _delay
 129  0053              #line 129 "c:\users\user\documents\htk_project\qbell_doorbell_mb_v1_2_f9\app.c"
 129  0053  0F02        	mov a,2
 129  0054  2000     E  	call _lvd_read_select
 130  0055              #line 130 "c:\users\user\documents\htk_project\qbell_doorbell_mb_v1_2_f9\app.c"
 130  0055  0F01        	mov a,1
 130  0056  0080     E  	mov _delay_2[0],a
 130  0057  1F00     E  	clr _delay_2[1]
 130  0058  2000     E  	call _delay
 181  0059              #line 181 "c:\users\user\documents\htk_project\qbell_doorbell_mb_v1_2_f9\app.c"
 181  0059  0FFC        	mov a,252
 181  005A  0200     R  	sub a,_app_2[10]
 181  005B  0F08        	mov a,8
 181  005C  1200     R  	sbc a,_app_2[11]
 181  005D  3C0A        	sz c
 181  005E  2800     R  	jmp _L34
 183  005F              #line 183 "c:\users\user\documents\htk_project\qbell_doorbell_mb_v1_2_f9\app.c"
 183  005F  0F08        	mov a,8
 183  0060  0080     E  	mov _intF[2],a
 184  0061              #line 184 "c:\users\user\documents\htk_project\qbell_doorbell_mb_v1_2_f9\app.c"
 184  0061  0F00     R  	mov a,low offset _LC16
 184  0062  0080     E  	mov _uart_printf_2[0],a
 184  0063  0F00     R  	mov a,high offset _LC16
 184  0064  0080     E  	mov _uart_printf_2[1],a
 184  0065  2800     R  	jmp _L40
 184  0066              _L34:
 189  0066              #line 189 "c:\users\user\documents\htk_project\qbell_doorbell_mb_v1_2_f9\app.c"
 189  0066  1700     E  	sdza _intF[41]
 189  0067  2800     R  	jmp _L35
 191  0068              #line 191 "c:\users\user\documents\htk_project\qbell_doorbell_mb_v1_2_f9\app.c"
 191  0068  1700     E  	sdza _intF[42]
 191  0069  2800     R  	jmp _L36
 193  006A              #line 193 "c:\users\user\documents\htk_project\qbell_doorbell_mb_v1_2_f9\app.c"
 193  006A  0F11        	mov a,17
 193  006B  0080     E  	mov _intF[2],a
 194  006C              #line 194 "c:\users\user\documents\htk_project\qbell_doorbell_mb_v1_2_f9\app.c"
 194  006C  0F00     R  	mov a,low offset _LC17
 194  006D  0080     E  	mov _uart_printf_2[0],a
 194  006E  0F00     R  	mov a,high offset _LC17
 194  006F  0080     E  	mov _uart_printf_2[1],a
 194  0070  2800     R  	jmp _L40
 194  0071              _L36:
 198  0071              #line 198 "c:\users\user\documents\htk_project\qbell_doorbell_mb_v1_2_f9\app.c"
 198  0071  0F09        	mov a,9
 198  0072  0080     E  	mov _intF[2],a
 199  0073              #line 199 "c:\users\user\documents\htk_project\qbell_doorbell_mb_v1_2_f9\app.c"
 199  0073  0F00     R  	mov a,low offset _LC18
 199  0074  0080     E  	mov _uart_printf_2[0],a
 199  0075  0F00     R  	mov a,high offset _LC18
 199  0076  0080     E  	mov _uart_printf_2[1],a
 199  0077              _L40:
 199  0077  2000     E  	call _uart_printf
"File: app.c         Assembler  Version HGASM0202      Page 12

 199  0078              _L35:
 205  0078              #line 205 "c:\users\user\documents\htk_project\qbell_doorbell_mb_v1_2_f9\app.c"
 205  0078  0F08        	mov a,8
 205  0079  0080     E  	mov _KEY_Process_2[0],a
 205  007A  0F01        	mov a,1
 205  007B  2000     E  	call _KEY_Process
 206  007C              #line 206 "c:\users\user\documents\htk_project\qbell_doorbell_mb_v1_2_f9\app.c"
 206  007C  0F14        	mov a,20
 206  007D  0080     E  	mov _delay_2[0],a
 206  007E  1F00     E  	clr _delay_2[1]
 206  007F  2000     E  	call _delay
 207  0080              #line 207 "c:\users\user\documents\htk_project\qbell_doorbell_mb_v1_2_f9\app.c"
 207  0080  0F01        	mov a,1
 207  0081  0080     E  	mov _intF[31],a
 208  0082              #line 208 "c:\users\user\documents\htk_project\qbell_doorbell_mb_v1_2_f9\app.c"
 208  0082  0F00        	mov a,0
 208  0083  2000     R  	call _LED
 208  0084              _L33:
 208  0084              #pragma debug scope 8 1
 211  0084              #line 211 "c:\users\user\documents\htk_project\qbell_doorbell_mb_v1_2_f9\app.c"
 211  0084  1080     E  	sz _intF[31]
 211  0085  2800     R  	jmp _L37
 213  0086              #line 213 "c:\users\user\documents\htk_project\qbell_doorbell_mb_v1_2_f9\app.c"
 213  0086  0F00     R  	mov a,low offset _LC19
 213  0087  0080     E  	mov _uart_printf_2[0],a
 213  0088  0F00     R  	mov a,high offset _LC19
 213  0089  0080     E  	mov _uart_printf_2[1],a
 213  008A  2000     E  	call _uart_printf
 214  008B              #line 214 "c:\users\user\documents\htk_project\qbell_doorbell_mb_v1_2_f9\app.c"
 214  008B  0F01        	mov a,1
 214  008C  0080     E  	mov _intF[32],a
 215  008D              #line 215 "c:\users\user\documents\htk_project\qbell_doorbell_mb_v1_2_f9\app.c"
 215  008D  2000     E  	call _System_deepsleep
 215  008E              _L37:
 223  008E              #line 223 "c:\users\user\documents\htk_project\qbell_doorbell_mb_v1_2_f9\app.c"
 223  008E  0700     E  	mov a,_BC3602_T[0]
 223  008F  0A04        	sub a,4
 223  0090  390A        	snz z
 223  0091  2800     R  	jmp _L38
 224  0092              #line 224 "c:\users\user\documents\htk_project\qbell_doorbell_mb_v1_2_f9\app.c"
 224  0092  0F00     E  	mov a,low offset _BC3602_T
 224  0093  0080     E  	mov _ExtendFIFO_TX_Process_2[0],a
 224  0094  0F00     E  	mov a,high offset _BC3602_T
 224  0095  0080     E  	mov _ExtendFIFO_TX_Process_2[1],a
 224  0096  2000     E  	call _ExtendFIFO_TX_Process
 224  0097              _L38:
 226  0097              #line 226 "c:\users\user\documents\htk_project\qbell_doorbell_mb_v1_2_f9\app.c"
 226  0097  0700     E  	mov a,_BC3602_T[0]
 226  0098  0A05        	sub a,5
 226  0099  390A        	snz z
 226  009A  2800     R  	jmp _L39
 227  009B              #line 227 "c:\users\user\documents\htk_project\qbell_doorbell_mb_v1_2_f9\app.c"
 227  009B  0F00     E  	mov a,low offset _BC3602_T
 227  009C  0080     E  	mov _ExtendFIFO_RX_Process_2[0],a
 227  009D  0F00     E  	mov a,high offset _BC3602_T
 227  009E  0080     E  	mov _ExtendFIFO_RX_Process_2[1],a
 227  009F  2000     E  	call _ExtendFIFO_RX_Process
 227  00A0              _L39:
 230  00A0              #line 230 "c:\users\user\documents\htk_project\qbell_doorbell_mb_v1_2_f9\app.c"
 230  00A0  0F00     E  	mov a,low offset _BC3602_T
"File: app.c         Assembler  Version HGASM0202      Page 13

 230  00A1  0080     E  	mov _RF_Finished_Process_2[0],a
 230  00A2  0F00     E  	mov a,high offset _BC3602_T
 230  00A3  0080     E  	mov _RF_Finished_Process_2[1],a
 230  00A4  2000     E  	call _RF_Finished_Process
 230  00A5  0003        	ret
 230  00A6              _app endp
 230  00A6              #line 230 "c:\users\user\documents\htk_project\qbell_doorbell_mb_v1_2_f9\app.c"
 230  00A6              #pragma debug scope 1 1
 230  00A6              ___pb equ [37]
 230  00A6              ___pbc equ [38]
 230  00A6              public _initSys
 230  00A6              #pragma debug scope 10 1
 298  00A6              #line 298 "c:\users\user\documents\htk_project\qbell_doorbell_mb_v1_2_f9\app.c"
 298  0000              _initSys .section 'code'
 298  0000              _initSys proc
 300  0000              #line 300 "c:\users\user\documents\htk_project\qbell_doorbell_mb_v1_2_f9\app.c"
 300  0000  2000     E  	call _Sys_init
 301  0001              #line 301 "c:\users\user\documents\htk_project\qbell_doorbell_mb_v1_2_f9\app.c"
 301  0001  2000     E  	call _sysInit
 303  0002              #line 303 "c:\users\user\documents\htk_project\qbell_doorbell_mb_v1_2_f9\app.c"
 303  0002  2000     E  	call _RF_Init
 304  0003              #line 304 "c:\users\user\documents\htk_project\qbell_doorbell_mb_v1_2_f9\app.c"
 304  0003  2000     E  	call _RF_Parameter_loading
 305  0004              #line 305 "c:\users\user\documents\htk_project\qbell_doorbell_mb_v1_2_f9\app.c"
 305  0004  0FCD        	mov a,205
 305  0005  0080     E  	mov _SpiWriteRegCMD_2[0],a
 305  0006  0F07        	mov a,7
 305  0007  2000     E  	call _SpiWriteRegCMD
 306  0008              #line 306 "c:\users\user\documents\htk_project\qbell_doorbell_mb_v1_2_f9\app.c"
 306  0008  0F05        	mov a,5
 306  0009  0080     E  	mov _BC3602_T[0],a
 310  000A              #line 310 "c:\users\user\documents\htk_project\qbell_doorbell_mb_v1_2_f9\app.c"
 310  000A  3625        	clr [37].4
 311  000B              #line 311 "c:\users\user\documents\htk_project\qbell_doorbell_mb_v1_2_f9\app.c"
 311  000B  3226        	set [38].4
 312  000C              #line 312 "c:\users\user\documents\htk_project\qbell_doorbell_mb_v1_2_f9\app.c"
 312  000C  3011        	set [17].0
 313  000D              #line 313 "c:\users\user\documents\htk_project\qbell_doorbell_mb_v1_2_f9\app.c"
 313  000D              ;# 313 "c:\users\user\documents\htk_project\qbell_doorbell_mb_v1_2_f9\app.c" 1
 313  000D  0001        	clr wdt
 313  000E  0003        	ret
 313  000F              _initSys endp
 313  000F              #line 313 "c:\users\user\documents\htk_project\qbell_doorbell_mb_v1_2_f9\app.c"
 313  000F              #pragma debug scope 1 1
 313  000F              #pragma debug struct_end
 313  000F              #pragma debug struct_end
 313  000F              #pragma debug union_end
 313  000F              #pragma debug union_end
 313  000F              #pragma debug variable 44 1 ___intc0 "__intc0" 1
 313  000F              #pragma debug struct_end
 313  000F              #pragma debug struct_end
 313  000F              #pragma debug union_end
 313  000F              #pragma debug union_end
 313  000F              #pragma debug variable 46 1 ___pa "__pa" 1
 313  000F              #pragma debug struct_end
 313  000F              #pragma debug struct_end
 313  000F              #pragma debug union_end
 313  000F              #pragma debug union_end
 313  000F              #pragma debug variable 48 1 ___pb "__pb" 1
 313  000F              #pragma debug struct_end
"File: app.c         Assembler  Version HGASM0202      Page 14

 313  000F              #pragma debug struct_end
 313  000F              #pragma debug union_end
 313  000F              #pragma debug union_end
 313  000F              #pragma debug variable 50 1 ___pbc "__pbc" 1
 313  000F              
 313  000F              ; output external variables
 313  000F              extern _BC3602_T:byte
 313  000F              extern _Mflag:byte
 313  000F              extern _intF:byte
 313  000F              extern _uart_printf_2:byte
 313  000F              extern _uart_printf:near
 313  000F              extern _eepromDeviceAddrRead:near
 313  000F              extern _eepromDeviceAddrCpyAckRead:near
 313  000F              extern _uart_send:near
 313  000F              extern _eepromDeviceAddrCpyRead:near
 313  000F              extern _memcmp_2:byte
 313  000F              extern _memcmp:near
 313  000F              extern _eeprom_write_2:byte
 313  000F              extern _eeprom_write:near
 313  000F              extern _delay_2:byte
 313  000F              extern _delay:near
 313  000F              extern _eepromDeviceAddrCpyAckWrite:near
 313  000F              extern _eepromDeviceAddrCpyWrite:near
 313  000F              extern _adc_getValue:near
 313  000F              extern _itoa_2:byte
 313  000F              extern _itoa:near
 313  000F              extern _lvd_mode_select:near
 313  000F              extern _lvd_read_select:near
 313  000F              extern _KEY_Process_2:byte
 313  000F              extern _KEY_Process:near
 313  000F              extern _System_deepsleep:near
 313  000F              extern _ExtendFIFO_TX_Process_2:byte
 313  000F              extern _ExtendFIFO_TX_Process:near
 313  000F              extern _ExtendFIFO_RX_Process_2:byte
 313  000F              extern _ExtendFIFO_RX_Process:near
 313  000F              extern _RF_Finished_Process_2:byte
 313  000F              extern _RF_Finished_Process:near
 313  000F              extern _Sys_init:near
 313  000F              extern _sysInit:near
 313  000F              extern _RF_Init:near
 313  000F              extern _RF_Parameter_loading:near
 313  000F              extern _SpiWriteRegCMD_2:byte
 313  000F              extern _SpiWriteRegCMD:near
 313  000F              
 313  000F              ; 
 313  000F              ; Generated by holtek-gcc v3.19, Sat Oct 29 17:39:45 2022
 313  000F              ; Rebuild 718
 313  000F              ; end of file


        0 Errors, 0