"File: app.c         Assembler  Version HGASM0202      Page 1


   1  0000              ; Generated by holtek-gcc v3.19, Mon Oct 17 14:57:49 2022
   2  0000              ; 
   3  0000              ; Configuration:
   4  0000              ;       with long instruction
   5  0000              ;       Single ROM, Multi-RAM
   6  0000              ;       bits_per_rom_unit:16
   7  0000              ;       with mp1
   8  0000              ;       with tbhp, address(0x9)
   9  0000              ;          Use tabrd-const
  10  0000              ;       
  11  0000              ; SFR address of long-instruction arch:
  12  0000              ;    mp0 = -1,1,0
  13  0000              ;    mp1 = 4,3,2
  14  0000              ;    mp2 = 14,13,12
  15  0000              ;    tbp = 9,7,8
  16  0000              ;    acc = 5
  17  0000              ;    pcl = 6
  18  0000              ;    status = 10
  19  0000              ;    bp = 11
  20  0000              ;    intc = 17
  21  0000              ;       
  22  0000              ;       
  23  0000              ; use 'tabrdc' instead of 'tabrd'
  24  0000              ;       
  25  0000              
  26  0000              #pragma translator "holtek-gcc 4.6.4" "3.19" "build 20130711"
  27  0000              ; Rebuild 718
  28  0000              
  29  0000              ir equ [2]
  30  0000              mp equ [3]
  31  0000              sbp equ [4]
  32  0000              acc equ [5]
  33  0000              bp equ [11]
  34  0000              tblp equ [7]
  35  0000              tbhp equ [9]
  36  0000              status equ [10]
  37  0000              c equ [10].0
  38  0000              ac equ [10].1
  39  0000              z equ [10].2
  40  0000              ov equ [10].3
  41  0000              cz equ [10].6
  42  0000              sc equ [10].7
  43  0000              intc equ [17]
  44  0000              
  45  0000              extern ra:byte
  46  0000              extern rb:byte
  47  0000              extern rc:byte
  48  0000              extern rd:byte
  49  0000              extern re:byte
  50  0000              extern rf:byte
  51  0000              extern rg:byte
  52  0000              extern rh:byte
  53  0000              extern _Crom2Prom:near
  54  0000              extern _Crom2PromNext:near
  55  0000              
  56  0000              RAMBANK 0 @BITDATASEC, @BITDATASEC1
  57  0000              @HCCINIT	.section 'data'
  58  0000              @HCCINIT0	.section 'data'
  59  0000              @BITDATASEC	 .section 'data'
"File: app.ASM       Assembler  Version HGASM0202      Page 2

  60  0000              @BITDATASEC1	 .section 'data'
  61  0000              
  62  0000              #pragma debug scope 1 1
  63  0000              	extern __DELAY3:near
  64  0000              	extern __DELAYX3:near
  65  0000              	extern __DELAYX6:near
  66  0000              	extern __DELAYY5:near
  67  0000              	extern __DELAYY3:near
  68  0000              	extern _builtin_holtek_delay_2:byte
  69  0000              @crom	.section 'crom'
  70  0000              _LC0:
  71  0000              	db 043h,068h,065h,063h,06bh,069h,06eh,067h,020h,044h
  72  0005              	db 065h,076h,069h,063h,065h,020h,041h,064h,064h,072h
  73  000A              	db 065h,073h,073h,03ah,020h,0ah,00h
  74  000E              public _app_pair_status_check
  75  000E              #pragma debug scope 2 1

  10  000E              #line 10 "c:\users\user\documents\htk_project\qbell_doorbell_mb_v1_2_f9\app.c"
  10  0000              _app_pair_status_check .section 'code'
  10  0000              _app_pair_status_check proc
  73  0000              #line 73 "c:\users\user\documents\htk_project\qbell_doorbell_mb_v1_2_f9\app.c"
  73  0000  0F00     R  	mov a,low offset _LC0
  73  0001  0080     E  	mov _uart_printf_2[0],a
  73  0002  0F00     R  	mov a,high offset _LC0
  73  0003  0080     E  	mov _uart_printf_2[1],a
  73  0004  2000     E  	call _uart_printf
  74  0005              #line 74 "c:\users\user\documents\htk_project\qbell_doorbell_mb_v1_2_f9\app.c"
  74  0005  2000     E  	call _eepromDeviceAddrRead
  75  0006              #line 75 "c:\users\user\documents\htk_project\qbell_doorbell_mb_v1_2_f9\app.c"
  75  0006  0F01        	mov a,1
  75  0007  0080     E  	mov _delay_2[0],a
  75  0008  1F00     E  	clr _delay_2[1]
  75  0009  2000     E  	call _delay
  76  000A              #line 76 "c:\users\user\documents\htk_project\qbell_doorbell_mb_v1_2_f9\app.c"
  76  000A  2000     E  	call _eepromDeviceAddrCpyCheck
  76  000B  0003        	ret
  76  000C              _app_pair_status_check endp
  76  000C              #line 76 "c:\users\user\documents\htk_project\qbell_doorbell_mb_v1_2_f9\app.c"
  76  000C              #pragma debug scope 1 1
  76  000E              @crom	.section 'crom'
  76  000E              _LC1:
  76  000E              	db 055h,070h,064h,061h,074h,069h,06eh,067h,020h,074h
  76  0013              	db 068h,065h,020h,045h,045h,050h,052h,04fh,04dh,0ah
  76  0018              	db 00h
  76  0018              @crom	.section 'crom'
  76  0018              _LC2:
  76  0018              	db 057h,072h,069h,074h,069h,06eh,067h,020h,074h,068h
  76  001D              	db 065h,020h,049h,044h,020h,074h,06fh,020h,074h,068h
  76  0022              	db 065h,020h,050h,031h,020h,041h,064h,064h,072h,065h
  76  0027              	db 073h,073h,03ah,020h,00h
  76  002A              @crom	.section 'crom'
  76  002A              _LC3:
  76  002A              	db 0ah,00h
  76  002B              @crom	.section 'crom'
  76  002B              _LC4:
  76  002B              	db 057h,072h,069h,074h,069h,06eh,067h,020h,074h,068h
  76  0030              	db 065h,020h,049h,044h,020h,074h,06fh,020h,074h,068h
  76  0035              	db 065h,020h,050h,032h,020h,041h,064h,064h,072h,065h
  76  003A              	db 073h,073h,03ah,020h,00h
  76  003C              @crom	.section 'crom'
"File: app.c         Assembler  Version HGASM0202      Page 3

  76  003C              _LC5:
  76  003C              	db 054h,068h,069h,073h,020h,064h,065h,076h,069h,063h
  76  0041              	db 065h,020h,069h,073h,020h,061h,06ch,072h,065h,061h
  76  0046              	db 064h,079h,020h,070h,061h,069h,072h,065h,064h,0ah
  76  004B              	db 00h
  76  004C              @crom	.section 'crom'
  76  004C              _LC6:
  76  004C              	db 057h,072h,069h,074h,069h,06eh,067h,020h,074h,072h
  76  0051              	db 068h,065h,020h,049h,044h,020h,074h,06fh,020h,074h
  76  0056              	db 068h,065h,020h,050h,031h,020h,041h,064h,064h,072h
  76  005B              	db 065h,073h,073h,03ah,020h,00h
  76  005E              @crom	.section 'crom'
  76  005E              _LC7:
  76  005E              	db 054h,068h,069h,073h,020h,069h,073h,020h,061h,06ch
  76  0063              	db 072h,065h,061h,064h,079h,020h,050h,061h,069h,072h
  76  0068              	db 065h,064h,020h,077h,069h,074h,068h,020h,074h,068h
  76  006D              	db 069h,073h,020h,064h,065h,076h,069h,063h,065h,0ah
  76  0072              	db 00h
  76  0072              @crom	.section 'crom'
  76  0072              _LC8:
  76  0072              	db 050h,031h,020h,061h,06eh,064h,020h,050h,032h,020h
  76  0077              	db 062h,06fh,074h,068h,020h,074h,068h,065h,020h,061h
  76  007C              	db 064h,064h,072h,065h,073h,073h,020h,061h,072h,065h
  76  0081              	db 020h,062h,075h,073h,079h,0ah,00h
  76  0085              public _app_pair_status_update
  76  0085              #pragma debug scope 3 1
  81  0085              #line 81 "c:\users\user\documents\htk_project\qbell_doorbell_mb_v1_2_f9\app.c"
  81  0000              _app_pair_status_update .section 'code'
  81  0000              _app_pair_status_update proc
  81  0000  0007[           local _app_pair_status_update_2 db 7 dup(?)	; 0,7
            00
            ]
  81  0007              #pragma debug array 42 8 5 3
  81  0007              #pragma debug array 42 8 5 3
  81  0007              #pragma debug variable 42 3 _app_pair_status_update_2+0 "tempArr"
  82  0007              #line 82 "c:\users\user\documents\htk_project\qbell_doorbell_mb_v1_2_f9\app.c"
  82  0000  0F00     R  	mov a,low offset _LC1
  82  0001  0080     E  	mov _uart_printf_2[0],a
  82  0002  0F00     R  	mov a,high offset _LC1
  82  0003  0080     E  	mov _uart_printf_2[1],a
  82  0004  2000     E  	call _uart_printf
  83  0005              #line 83 "c:\users\user\documents\htk_project\qbell_doorbell_mb_v1_2_f9\app.c"
  83  0005  1F00     E  	clr _intF[30]
  84  0006              #line 84 "c:\users\user\documents\htk_project\qbell_doorbell_mb_v1_2_f9\app.c"
  84  0006  2000     E  	call _eepromPstatusCheck
  85  0007              #line 85 "c:\users\user\documents\htk_project\qbell_doorbell_mb_v1_2_f9\app.c"
  85  0007  0F0A        	mov a,10
  85  0008  0080     E  	mov _delay_2[0],a
  85  0009  1F00     E  	clr _delay_2[1]
  85  000A  2000     E  	call _delay
  89  000B              #line 89 "c:\users\user\documents\htk_project\qbell_doorbell_mb_v1_2_f9\app.c"
  89  000B  0700     E  	mov a,_intF[4]
  89  000C  0080     R  	mov _app_pair_status_update_2[0],a
  89  000D  0700     E  	mov a,_intF[5]
  89  000E  0080     R  	mov _app_pair_status_update_2[1],a
  89  000F  0700     E  	mov a,_intF[6]
  89  0010  0080     R  	mov _app_pair_status_update_2[2],a
  89  0011  0700     E  	mov a,_intF[7]
  89  0012  0080     R  	mov _app_pair_status_update_2[3],a
  90  0013              #line 90 "c:\users\user\documents\htk_project\qbell_doorbell_mb_v1_2_f9\app.c"
"File: app.c         Assembler  Version HGASM0202      Page 4

  90  0013  0700     E  	mov a,_intF[29]
  90  0014  0A00        	sub a,0
  90  0015  3D0A        	sz z
  90  0016  2800     R  	jmp _L4
  90  0017  0A01        	sub a,(1)-(0)
  90  0018  3D0A        	sz z
  90  0019  2800     R  	jmp _L5
  90  001A              #line 90 "c:\users\user\documents\htk_project\qbell_doorbell_mb_v1_2_f9\app.c"
  90  001A  0700     E  	mov a,_intF[29]
  90  001B  0A02        	sub a,2
  90  001C  3D0A        	sz z
  90  001D  2800     R  	jmp _L6
  90  001E  0700     E  	mov a,_intF[29]
  90  001F  0A03        	sub a,3
  90  0020  390A        	snz z
  90  0021  2800     R  	jmp _L2
 151  0022              #line 151 "c:\users\user\documents\htk_project\qbell_doorbell_mb_v1_2_f9\app.c"
 151  0022  0F00     R  	mov a,low offset _LC8
 151  0023  0080     E  	mov _uart_printf_2[0],a
 151  0024  0F00     R  	mov a,high offset _LC8
 151  0025  0080     E  	mov _uart_printf_2[1],a
 151  0026  2800     R  	jmp _L23
 151  0027              _L4:
  93  0027              #line 93 "c:\users\user\documents\htk_project\qbell_doorbell_mb_v1_2_f9\app.c"
  93  0027  0F00     R  	mov a,low offset _LC2
  93  0028  0080     E  	mov _uart_printf_2[0],a
  93  0029  0F00     R  	mov a,high offset _LC2
  93  002A  0080     E  	mov _uart_printf_2[1],a
  93  002B  2000     E  	call _uart_printf
  94  002C              #line 94 "c:\users\user\documents\htk_project\qbell_doorbell_mb_v1_2_f9\app.c"
  94  002C  2000     E  	call _eepromP1Write
  95  002D              #line 95 "c:\users\user\documents\htk_project\qbell_doorbell_mb_v1_2_f9\app.c"
  95  002D  0F0A        	mov a,10
  95  002E  0080     E  	mov _delay_2[0],a
  95  002F  1F00     E  	clr _delay_2[1]
  95  0030  2000     E  	call _delay
  96  0031              #line 96 "c:\users\user\documents\htk_project\qbell_doorbell_mb_v1_2_f9\app.c"
  96  0031  2000     E  	call _eepromP1Read
  97  0032              #line 97 "c:\users\user\documents\htk_project\qbell_doorbell_mb_v1_2_f9\app.c"
  97  0032  0F0A        	mov a,10
  97  0033  0080     E  	mov _delay_2[0],a
  97  0034  1F00     E  	clr _delay_2[1]
  97  0035  2000     E  	call _delay
  98  0036              #line 98 "c:\users\user\documents\htk_project\qbell_doorbell_mb_v1_2_f9\app.c"
  98  0036  0F01        	mov a,1
  98  0037  2000     E  	call _eepromPstatusWrite
  99  0038              #line 99 "c:\users\user\documents\htk_project\qbell_doorbell_mb_v1_2_f9\app.c"
  99  0038  0F0A        	mov a,10
  99  0039  0080     E  	mov _delay_2[0],a
  99  003A  1F00     E  	clr _delay_2[1]
  99  003B  2000     E  	call _delay
  99  003C  0F04        	mov a,4
  99  003D  0080     R  	mov _app_pair_status_update_2[5],a
 100  003E              #line 100 "c:\users\user\documents\htk_project\qbell_doorbell_mb_v1_2_f9\app.c"
 100  003E  1F00     R  	clr _app_pair_status_update_2[6]
 100  003F              _L9:
 101  003F              #line 101 "c:\users\user\documents\htk_project\qbell_doorbell_mb_v1_2_f9\app.c"
 101  003F  0F00     E  	mov a,low (offset _intF+19)
 101  0040  0300     R  	add a,_app_pair_status_update_2[6]
 101  0041  0083        	mov mp,a
"File: app.c         Assembler  Version HGASM0202      Page 5

 101  0042  0F00     E  	mov a,high (offset _intF+19)
 101  0043  1F04        	clr sbp
 101  0044  1384        	adcm a,sbp
 101  0045  2000     E  	call _Crom2Prom
 101  0046  2000     E  	call _uart_send
 100  0047              #line 100 "c:\users\user\documents\htk_project\qbell_doorbell_mb_v1_2_f9\app.c"
 100  0047  1480     R  	inc _app_pair_status_update_2[6]
 100  0048  1780     R  	sdz _app_pair_status_update_2[5]
 100  0049  2800     R  	jmp _L9
 100  004A              _L8:
 102  004A              #line 102 "c:\users\user\documents\htk_project\qbell_doorbell_mb_v1_2_f9\app.c"
 102  004A  0F00     R  	mov a,low offset _LC3
 102  004B  0080     E  	mov _uart_printf_2[0],a
 102  004C  0F00     R  	mov a,high offset _LC3
 102  004D  0080     E  	mov _uart_printf_2[1],a
 102  004E  2800     R  	jmp _L23
 102  004F              _L5:
 106  004F              #line 106 "c:\users\user\documents\htk_project\qbell_doorbell_mb_v1_2_f9\app.c"
 106  004F  2000     E  	call _eepromP1Read
 107  0050              #line 107 "c:\users\user\documents\htk_project\qbell_doorbell_mb_v1_2_f9\app.c"
 107  0050  0F0A        	mov a,10
 107  0051  0080     E  	mov _delay_2[0],a
 107  0052  1F00     E  	clr _delay_2[1]
 107  0053  2000     E  	call _delay
 108  0054              #line 108 "c:\users\user\documents\htk_project\qbell_doorbell_mb_v1_2_f9\app.c"
 108  0054  0F05        	mov a,5
 108  0055  0080     E  	mov _memcmp_2[4],a
 108  0056  1F00     E  	clr _memcmp_2[5]
 108  0057  0F00     E  	mov a,low (offset _intF+19)
 108  0058  0080     E  	mov _memcmp_2[2],a
 108  0059  0F00     E  	mov a,high (offset _intF+19)
 108  005A  0080     E  	mov _memcmp_2[3],a
 108  005B  0F00     R  	mov a,low offset _app_pair_status_update_2
 108  005C  0080     E  	mov _memcmp_2[0],a
 108  005D  0F00     R  	mov a,high offset _app_pair_status_update_2
 108  005E  0080     E  	mov _memcmp_2[1],a
 108  005F  2000     E  	call _memcmp
 108  0060  0700     E  	mov a,ra
 108  0061  0500     E  	or a,rb
 108  0062  3D0A        	sz z
 108  0063  2800     R  	jmp _L10
 110  0064              #line 110 "c:\users\user\documents\htk_project\qbell_doorbell_mb_v1_2_f9\app.c"
 110  0064  0F00     R  	mov a,low offset _LC4
 110  0065  0080     E  	mov _uart_printf_2[0],a
 110  0066  0F00     R  	mov a,high offset _LC4
 110  0067  0080     E  	mov _uart_printf_2[1],a
 110  0068  2000     E  	call _uart_printf
 111  0069              #line 111 "c:\users\user\documents\htk_project\qbell_doorbell_mb_v1_2_f9\app.c"
 111  0069  2000     E  	call _eepromP2Write
 112  006A              #line 112 "c:\users\user\documents\htk_project\qbell_doorbell_mb_v1_2_f9\app.c"
 112  006A  0F0A        	mov a,10
 112  006B  0080     E  	mov _delay_2[0],a
 112  006C  1F00     E  	clr _delay_2[1]
 112  006D  2000     E  	call _delay
 113  006E              #line 113 "c:\users\user\documents\htk_project\qbell_doorbell_mb_v1_2_f9\app.c"
 113  006E  2000     E  	call _eepromP2Read
 114  006F              #line 114 "c:\users\user\documents\htk_project\qbell_doorbell_mb_v1_2_f9\app.c"
 114  006F  0F0A        	mov a,10
 114  0070  0080     E  	mov _delay_2[0],a
 114  0071  1F00     E  	clr _delay_2[1]
"File: app.c         Assembler  Version HGASM0202      Page 6

 114  0072  2000     E  	call _delay
 115  0073              #line 115 "c:\users\user\documents\htk_project\qbell_doorbell_mb_v1_2_f9\app.c"
 115  0073  0F03        	mov a,3
 115  0074  2000     E  	call _eepromPstatusWrite
 116  0075              #line 116 "c:\users\user\documents\htk_project\qbell_doorbell_mb_v1_2_f9\app.c"
 116  0075  0F0A        	mov a,10
 116  0076  0080     E  	mov _delay_2[0],a
 116  0077  1F00     E  	clr _delay_2[1]
 116  0078  2000     E  	call _delay
 116  0079  0F04        	mov a,4
 116  007A  0080     R  	mov _app_pair_status_update_2[5],a
 117  007B              #line 117 "c:\users\user\documents\htk_project\qbell_doorbell_mb_v1_2_f9\app.c"
 117  007B  1F00     R  	clr _app_pair_status_update_2[6]
 117  007C              _L11:
 118  007C              #line 118 "c:\users\user\documents\htk_project\qbell_doorbell_mb_v1_2_f9\app.c"
 118  007C  0F00     E  	mov a,low (offset _intF+24)
 118  007D  0300     R  	add a,_app_pair_status_update_2[6]
 118  007E  0083        	mov mp,a
 118  007F  0F00     E  	mov a,high (offset _intF+24)
 118  0080  1F04        	clr sbp
 118  0081  1384        	adcm a,sbp
 118  0082  2000     E  	call _Crom2Prom
 118  0083  2000     E  	call _uart_send
 117  0084              #line 117 "c:\users\user\documents\htk_project\qbell_doorbell_mb_v1_2_f9\app.c"
 117  0084  1480     R  	inc _app_pair_status_update_2[6]
 117  0085  1780     R  	sdz _app_pair_status_update_2[5]
 117  0086  2800     R  	jmp _L11
 117  0087  2800     R  	jmp _L8
 117  0088              _L10:
 124  0088              #line 124 "c:\users\user\documents\htk_project\qbell_doorbell_mb_v1_2_f9\app.c"
 124  0088  0F00     R  	mov a,low offset _LC5
 124  0089  0080     E  	mov _uart_printf_2[0],a
 124  008A  0F00     R  	mov a,high offset _LC5
 124  008B  0080     E  	mov _uart_printf_2[1],a
 124  008C  2800     R  	jmp _L23
 124  008D              _L6:
 130  008D              #line 130 "c:\users\user\documents\htk_project\qbell_doorbell_mb_v1_2_f9\app.c"
 130  008D  2000     E  	call _eepromP2Read
 131  008E              #line 131 "c:\users\user\documents\htk_project\qbell_doorbell_mb_v1_2_f9\app.c"
 131  008E  0F05        	mov a,5
 131  008F  0080     E  	mov _memcmp_2[4],a
 131  0090  1F00     E  	clr _memcmp_2[5]
 131  0091  0F00     E  	mov a,low (offset _intF+24)
 131  0092  0080     E  	mov _memcmp_2[2],a
 131  0093  0F00     E  	mov a,high (offset _intF+24)
 131  0094  0080     E  	mov _memcmp_2[3],a
 131  0095  0F00     R  	mov a,low offset _app_pair_status_update_2
 131  0096  0080     E  	mov _memcmp_2[0],a
 131  0097  0F00     R  	mov a,high offset _app_pair_status_update_2
 131  0098  0080     E  	mov _memcmp_2[1],a
 131  0099  2000     E  	call _memcmp
 131  009A  0700     E  	mov a,ra
 131  009B  0500     E  	or a,rb
 131  009C  3D0A        	sz z
 131  009D  2800     R  	jmp _L12
 133  009E              #line 133 "c:\users\user\documents\htk_project\qbell_doorbell_mb_v1_2_f9\app.c"
 133  009E  0F00     R  	mov a,low offset _LC6
 133  009F  0080     E  	mov _uart_printf_2[0],a
 133  00A0  0F00     R  	mov a,high offset _LC6
 133  00A1  0080     E  	mov _uart_printf_2[1],a
"File: app.c         Assembler  Version HGASM0202      Page 7

 133  00A2  2000     E  	call _uart_printf
 134  00A3              #line 134 "c:\users\user\documents\htk_project\qbell_doorbell_mb_v1_2_f9\app.c"
 134  00A3  2000     E  	call _eepromP1Write
 135  00A4              #line 135 "c:\users\user\documents\htk_project\qbell_doorbell_mb_v1_2_f9\app.c"
 135  00A4  0F0A        	mov a,10
 135  00A5  0080     E  	mov _delay_2[0],a
 135  00A6  1F00     E  	clr _delay_2[1]
 135  00A7  2000     E  	call _delay
 136  00A8              #line 136 "c:\users\user\documents\htk_project\qbell_doorbell_mb_v1_2_f9\app.c"
 136  00A8  2000     E  	call _eepromP1Read
 137  00A9              #line 137 "c:\users\user\documents\htk_project\qbell_doorbell_mb_v1_2_f9\app.c"
 137  00A9  0F0A        	mov a,10
 137  00AA  0080     E  	mov _delay_2[0],a
 137  00AB  1F00     E  	clr _delay_2[1]
 137  00AC  2000     E  	call _delay
 138  00AD              #line 138 "c:\users\user\documents\htk_project\qbell_doorbell_mb_v1_2_f9\app.c"
 138  00AD  0F03        	mov a,3
 138  00AE  2000     E  	call _eepromPstatusWrite
 139  00AF              #line 139 "c:\users\user\documents\htk_project\qbell_doorbell_mb_v1_2_f9\app.c"
 139  00AF  0F0A        	mov a,10
 139  00B0  0080     E  	mov _delay_2[0],a
 139  00B1  1F00     E  	clr _delay_2[1]
 139  00B2  2000     E  	call _delay
 139  00B3  0F04        	mov a,4
 139  00B4  0080     R  	mov _app_pair_status_update_2[5],a
 140  00B5              #line 140 "c:\users\user\documents\htk_project\qbell_doorbell_mb_v1_2_f9\app.c"
 140  00B5  1F00     R  	clr _app_pair_status_update_2[6]
 140  00B6              _L13:
 141  00B6              #line 141 "c:\users\user\documents\htk_project\qbell_doorbell_mb_v1_2_f9\app.c"
 141  00B6  0F00     E  	mov a,low (offset _intF+19)
 141  00B7  0300     R  	add a,_app_pair_status_update_2[6]
 141  00B8  0083        	mov mp,a
 141  00B9  0F00     E  	mov a,high (offset _intF+19)
 141  00BA  1F04        	clr sbp
 141  00BB  1384        	adcm a,sbp
 141  00BC  2000     E  	call _Crom2Prom
 141  00BD  2000     E  	call _uart_send
 140  00BE              #line 140 "c:\users\user\documents\htk_project\qbell_doorbell_mb_v1_2_f9\app.c"
 140  00BE  1480     R  	inc _app_pair_status_update_2[6]
 140  00BF  1780     R  	sdz _app_pair_status_update_2[5]
 140  00C0  2800     R  	jmp _L13
 140  00C1  2800     R  	jmp _L8
 140  00C2              _L12:
 146  00C2              #line 146 "c:\users\user\documents\htk_project\qbell_doorbell_mb_v1_2_f9\app.c"
 146  00C2  0F00     R  	mov a,low offset _LC7
 146  00C3  0080     E  	mov _uart_printf_2[0],a
 146  00C4  0F00     R  	mov a,high offset _LC7
 146  00C5  0080     E  	mov _uart_printf_2[1],a
 146  00C6              _L23:
 151  00C6              #line 151 "c:\users\user\documents\htk_project\qbell_doorbell_mb_v1_2_f9\app.c"
 151  00C6  2000     E  	call _uart_printf
 151  00C7              _L2:
 151  00C7  0003        	ret
 151  00C8              _app_pair_status_update endp
 151  00C8              #line 151 "c:\users\user\documents\htk_project\qbell_doorbell_mb_v1_2_f9\app.c"
 151  00C8              #pragma debug scope 1 1
 151  0085              @crom	.section 'crom'
 151  0085              _LC9:
 151  0085              	db 055h,06eh,070h,072h,069h,06eh,074h,020h,074h,068h
 151  008A              	db 065h,020h,073h,070h,065h,063h,066h,069h,063h,065h
"File: app.c         Assembler  Version HGASM0202      Page 8

 151  008F              	db 020h,04eh,06fh,064h,065h,03ah,020h,00h
 151  0093              public _unpairSpNode
 151  0093              #pragma debug scope 4 1
 287  0093              #line 287 "c:\users\user\documents\htk_project\qbell_doorbell_mb_v1_2_f9\app.c"
 287  0000              _unpairSpNode .section 'code'
 287  0000              _unpairSpNode proc
 287  0000  0005[           local _unpairSpNode_2 db 5 dup(?)	; 0,5
            00
            ]
 287  0005              #pragma debug array 43 8 5 4
 287  0005              #pragma debug array 43 8 5 4
 287  0005              #pragma debug variable 43 4 _unpairSpNode_2+0 "tempAddr"
 291  0005              #line 291 "c:\users\user\documents\htk_project\qbell_doorbell_mb_v1_2_f9\app.c"
 291  0000  0700     E  	mov a,_intF[4]
 291  0001  0080     R  	mov _unpairSpNode_2[0],a
 291  0002  0700     E  	mov a,_intF[5]
 291  0003  0080     R  	mov _unpairSpNode_2[1],a
 291  0004  0700     E  	mov a,_intF[6]
 291  0005  0080     R  	mov _unpairSpNode_2[2],a
 291  0006  0700     E  	mov a,_intF[7]
 291  0007  0080     R  	mov _unpairSpNode_2[3],a
 292  0008              #line 292 "c:\users\user\documents\htk_project\qbell_doorbell_mb_v1_2_f9\app.c"
 292  0008  0F00     R  	mov a,low offset _LC9
 292  0009  0080     E  	mov _uart_printf_2[0],a
 292  000A  0F00     R  	mov a,high offset _LC9
 292  000B  0080     E  	mov _uart_printf_2[1],a
 292  000C  2000     E  	call _uart_printf
 293  000D              #line 293 "c:\users\user\documents\htk_project\qbell_doorbell_mb_v1_2_f9\app.c"
 293  000D  0F00     R  	mov a,low offset _unpairSpNode_2
 293  000E  0080     E  	mov _uart_printf_2[0],a
 293  000F  0F00     R  	mov a,high offset _unpairSpNode_2
 293  0010  0080     E  	mov _uart_printf_2[1],a
 293  0011  2000     E  	call _uart_printf
 294  0012              #line 294 "c:\users\user\documents\htk_project\qbell_doorbell_mb_v1_2_f9\app.c"
 294  0012  0F00     R  	mov a,low offset _LC3
 294  0013  0080     E  	mov _uart_printf_2[0],a
 294  0014  0F00     R  	mov a,high offset _LC3
 294  0015  0080     E  	mov _uart_printf_2[1],a
 294  0016  2000     E  	call _uart_printf
 294  0017  0003        	ret
 294  0018              _unpairSpNode endp
 294  0018              #line 294 "c:\users\user\documents\htk_project\qbell_doorbell_mb_v1_2_f9\app.c"
 294  0018              #pragma debug scope 1 1
 294  0018              ___pa equ [20]
 294  0018              public _rgb_blink
 294  0018              #pragma debug scope 5 1
 298  0018              #line 298 "c:\users\user\documents\htk_project\qbell_doorbell_mb_v1_2_f9\app.c"
 298  0000              _rgb_blink .section 'code'
 298  0000              _rgb_blink proc
 298  0000  00              local _rgb_blink_2 db 1 dup(?)	; 0,1
 298  0000  0080     E  	mov ra,a
 298  0001  0080     R  	mov _rgb_blink_2[0],a
 298  0002              #pragma debug variable 8 5 _rgb_blink_2+0 "color"
 299  0002              #line 299 "c:\users\user\documents\htk_project\qbell_doorbell_mb_v1_2_f9\app.c"
 299  0002  0700     E  	mov a,ra
 299  0003  0A01        	sub a,1
 299  0004  3D0A        	sz z
 299  0005  2800     R  	jmp _L28
 299  0006  0A01        	sub a,(2)-(1)
 299  0007  3D0A        	sz z
"File: app.c         Assembler  Version HGASM0202      Page 9

 299  0008  2800     R  	jmp _L29
 299  0009              #line 299 "c:\users\user\documents\htk_project\qbell_doorbell_mb_v1_2_f9\app.c"
 299  0009  0700     E  	mov a,ra
 299  000A  0A03        	sub a,3
 299  000B  390A        	snz z
 299  000C  2800     R  	jmp _L32
 314  000D              #line 314 "c:\users\user\documents\htk_project\qbell_doorbell_mb_v1_2_f9\app.c"
 314  000D  3394        	set [20].7
 315  000E              #line 315 "c:\users\user\documents\htk_project\qbell_doorbell_mb_v1_2_f9\app.c"
 315  000E  3594        	clr [20].3
 315  000F  2800     R  	jmp _L34
 315  0010              _L28:
 302  0010              #line 302 "c:\users\user\documents\htk_project\qbell_doorbell_mb_v1_2_f9\app.c"
 302  0010  3794        	clr [20].7
 302  0011  2800     R  	jmp _L33
 302  0012              _L29:
 308  0012              #line 308 "c:\users\user\documents\htk_project\qbell_doorbell_mb_v1_2_f9\app.c"
 308  0012  3394        	set [20].7
 309  0013              #line 309 "c:\users\user\documents\htk_project\qbell_doorbell_mb_v1_2_f9\app.c"
 309  0013  3194        	set [20].3
 310  0014              #line 310 "c:\users\user\documents\htk_project\qbell_doorbell_mb_v1_2_f9\app.c"
 310  0014  3714        	clr [20].6
 311  0015              #line 311 "c:\users\user\documents\htk_project\qbell_doorbell_mb_v1_2_f9\app.c"
 311  0015  2800     R  	jmp _L26
 311  0016              _L32:
 311  0016              #pragma debug scope 6 5
 311  0016              ;begin block, line: 311.-1
 311  0016              #pragma debug scope 7 6
 311  0016              ;begin block, line: 311.-1
 320  0016              #line 320 "c:\users\user\documents\htk_project\qbell_doorbell_mb_v1_2_f9\app.c"
 320  0016  3394        	set [20].7
 320  0017              _L33:
 321  0017              #line 321 "c:\users\user\documents\htk_project\qbell_doorbell_mb_v1_2_f9\app.c"
 321  0017  3194        	set [20].3
 321  0018              _L34:
 322  0018              #line 322 "c:\users\user\documents\htk_project\qbell_doorbell_mb_v1_2_f9\app.c"
 322  0018  3314        	set [20].6
 322  0019              _L26:
 322  0019              #pragma debug scope 6 5
 322  0019              #pragma debug scope 5 1
 322  0019  0003        	ret
 322  001A              _rgb_blink endp
 322  001A              #line 322 "c:\users\user\documents\htk_project\qbell_doorbell_mb_v1_2_f9\app.c"
 322  001A              #pragma debug scope 1 1
 322  001A              public _LED
 322  001A              #pragma debug scope 8 1
 328  001A              #line 328 "c:\users\user\documents\htk_project\qbell_doorbell_mb_v1_2_f9\app.c"
 328  0000              _LED .section 'code'
 328  0000              _LED proc
 328  0000  00              local _LED_2 db 1 dup(?)	; 0,1
 328  0000  0080     E  	mov ra,a
 328  0001              #pragma debug variable 8 8 _LED_2+0 "mode"
 329  0001              #line 329 "c:\users\user\documents\htk_project\qbell_doorbell_mb_v1_2_f9\app.c"
 329  0001  0700     E  	mov a,ra
 329  0002  0A00        	sub a,0
 329  0003  3D0A        	sz z
 329  0004  2800     R  	jmp _L37
 329  0005  0A01        	sub a,(1)-(0)
 329  0006  3D0A        	sz z
 329  0007  2800     R  	jmp _L38
"File: app.c         Assembler  Version HGASM0202      Page 10

 329  0008              #line 329 "c:\users\user\documents\htk_project\qbell_doorbell_mb_v1_2_f9\app.c"
 329  0008  0700     E  	mov a,ra
 329  0009  0A02        	sub a,2
 329  000A  3D0A        	sz z
 329  000B  2800     R  	jmp _L39
 329  000C  0A01        	sub a,(3)-(2)
 329  000D  3D0A        	sz z
 329  000E  2800     R  	jmp _L41
 329  000F  0700     E  	mov a,ra
 329  0010  0A05        	sub a,5
 329  0011  390A        	snz z
 329  0012  2800     R  	jmp _L35
 329  0013  2800     R  	jmp _L41
 329  0014              _L37:
 332  0014              #line 332 "c:\users\user\documents\htk_project\qbell_doorbell_mb_v1_2_f9\app.c"
 332  0014  0F00        	mov a,0
 332  0015  2800     R  	jmp _L42
 332  0016              _L38:
 336  0016              #line 336 "c:\users\user\documents\htk_project\qbell_doorbell_mb_v1_2_f9\app.c"
 336  0016  0F02        	mov a,2
 336  0017  2800     R  	jmp _L42
 336  0018              _L39:
 340  0018              #line 340 "c:\users\user\documents\htk_project\qbell_doorbell_mb_v1_2_f9\app.c"
 340  0018  0F03        	mov a,3
 340  0019  2800     R  	jmp _L42
 340  001A              _L41:
 348  001A              #line 348 "c:\users\user\documents\htk_project\qbell_doorbell_mb_v1_2_f9\app.c"
 348  001A  0F01        	mov a,1
 348  001B              _L42:
 348  001B  2000     R  	call _rgb_blink
 348  001C              _L35:
 348  001C  0003        	ret
 348  001D              _LED endp
 348  001D              #line 348 "c:\users\user\documents\htk_project\qbell_doorbell_mb_v1_2_f9\app.c"
 348  001D              #pragma debug scope 1 1
 348  0093              @crom	.section 'crom'
 348  0093              _LC10:
 348  0093              	db 049h,06dh,020h,068h,065h,072h,065h,020h,064h,06fh
 348  0098              	db 06fh,064h,0ah,00h
 348  009A              ___intc0 equ [17]
 348  009A              @crom	.section 'crom'
 348  009A              _LC11:
 348  009A              	db 042h,075h,074h,074h,06fh,06eh,020h,050h,072h,065h
 348  009F              	db 073h,073h,065h,064h,0ah,00h
 348  00A2              @crom	.section 'crom'
 348  00A2              _LC12:
 348  00A2              	db 041h,044h,043h,020h,056h,061h,06ch,075h,065h,03ah
 348  00A7              	db 020h,00h
 348  00A8              @crom	.section 'crom'
 348  00A8              _LC13:
 348  00A8              	db 04ch,06fh,077h,020h,042h,061h,074h,074h,065h,072h
 348  00AD              	db 079h,020h,056h,06fh,06ch,074h,061h,067h,065h,0ah
 348  00B2              	db 00h
 348  00B2              @crom	.section 'crom'
 348  00B2              _LC14:
 348  00B2              	db 041h,076h,065h,072h,061h,067h,065h,020h,042h,061h
 348  00B7              	db 074h,074h,065h,072h,079h,020h,056h,06fh,06ch,074h
 348  00BC              	db 061h,067h,065h,0ah,00h
 348  00BF              @crom	.section 'crom'
 348  00BF              _LC15:
"File: app.c         Assembler  Version HGASM0202      Page 11

 348  00BF              	db 046h,075h,06ch,06ch,020h,042h,061h,074h,074h,065h
 348  00C4              	db 072h,079h,0ah,00h
 348  00C6              @crom	.section 'crom'
 348  00C6              _LC16:
 348  00C6              	db 041h,076h,065h,072h,061h,067h,065h,020h,031h,020h
 348  00CB              	db 042h,061h,074h,074h,065h,072h,079h,020h,0ah,00h
 348  00D0              @crom	.section 'crom'
 348  00D0              _LC17:
 348  00D0              	db 04ch,06fh,077h,020h,042h,061h,074h,074h,065h,072h
 348  00D5              	db 079h,0ah,00h
 348  00D6              @crom	.section 'crom'
 348  00D6              _LC18:
 348  00D6              	db 075h,06eh,064h,065h,066h,069h,06eh,065h,064h,020h
 348  00DB              	db 042h,061h,074h,074h,065h,072h,079h,020h,056h,061h
 348  00E0              	db 06ch,075h,065h,0ah,00h
 348  00E3              @crom	.section 'crom'
 348  00E3              _LC19:
 348  00E3              	db 047h,06fh,069h,06eh,067h,020h,074h,06fh,020h,053h
 348  00E8              	db 06ch,065h,065h,070h,020h,04dh,06fh,064h,065h,0ah
 348  00ED              	db 00h
 348  00ED              public _app
 348  00ED              #pragma debug scope 9 1
 161  00ED              #line 161 "c:\users\user\documents\htk_project\qbell_doorbell_mb_v1_2_f9\app.c"
 161  0000              _app .section 'code'
 161  0000              _app proc
 161  0000  000C[           local _app_2 db 12 dup(?)	; 0,12
            00
            ]
 167  000C              #line 167 "c:\users\user\documents\htk_project\qbell_doorbell_mb_v1_2_f9\app.c"
 167  0000  1E00     E  	snz _intF[31]
 167  0001  2800     R  	jmp _L45
 170  0002              #line 170 "c:\users\user\documents\htk_project\qbell_doorbell_mb_v1_2_f9\app.c"
 170  0002  0F7C        	mov a,124
 170  0003  0200     E  	sub a,_Mflag[3]
 170  0004  3C0A        	sz c
 170  0005  2800     R  	jmp _L45
 172  0006              #line 172 "c:\users\user\documents\htk_project\qbell_doorbell_mb_v1_2_f9\app.c"
 172  0006  1F00     E  	clr _Mflag[3]
 173  0007              #line 173 "c:\users\user\documents\htk_project\qbell_doorbell_mb_v1_2_f9\app.c"
 173  0007  1480     E  	inc _Mflag[4]
 174  0008              #line 174 "c:\users\user\documents\htk_project\qbell_doorbell_mb_v1_2_f9\app.c"
 174  0008  0F00     R  	mov a,low offset _LC10
 174  0009  0080     E  	mov _uart_printf_2[0],a
 174  000A  0F00     R  	mov a,high offset _LC10
 174  000B  0080     E  	mov _uart_printf_2[1],a
 174  000C  2000     E  	call _uart_printf
 175  000D              #line 175 "c:\users\user\documents\htk_project\qbell_doorbell_mb_v1_2_f9\app.c"
 175  000D  0F02        	mov a,2
 175  000E  0200     E  	sub a,_Mflag[4]
 175  000F  3C0A        	sz c
 175  0010  2800     R  	jmp _L45
 177  0011              #line 177 "c:\users\user\documents\htk_project\qbell_doorbell_mb_v1_2_f9\app.c"
 177  0011  1F00     E  	clr _Mflag[4]
 178  0012              #line 178 "c:\users\user\documents\htk_project\qbell_doorbell_mb_v1_2_f9\app.c"
 178  0012  1F00     E  	clr _Mflag[3]
 179  0013              #line 179 "c:\users\user\documents\htk_project\qbell_doorbell_mb_v1_2_f9\app.c"
 179  0013  1F00     E  	clr _intF[31]
 179  0014              _L45:
 184  0014              #line 184 "c:\users\user\documents\htk_project\qbell_doorbell_mb_v1_2_f9\app.c"
 184  0014  1080     E  	sz _intF[32]
"File: app.c         Assembler  Version HGASM0202      Page 12

 184  0015  2800     R  	jmp _L47
 184  0016  3E94        	sz [20].5
 184  0017  2800     R  	jmp _L48
 184  0018              _L47:
 184  0018              #pragma debug scope 10 9
 184  0018              ;begin block, line: 184.-1
 184  0018              #pragma debug variable 10 10 _app_2+10 "adcBattValue"
 184  0018              #pragma debug array 44 8 10 10
 184  0018              #pragma debug array 44 8 10 10
 184  0018              #pragma debug variable 44 10 _app_2+0 "value"
 186  0018              #line 186 "c:\users\user\documents\htk_project\qbell_doorbell_mb_v1_2_f9\app.c"
 186  0018  3011        	set [17].0
 187  0019              #line 187 "c:\users\user\documents\htk_project\qbell_doorbell_mb_v1_2_f9\app.c"
 187  0019  1F00     E  	clr _intF[32]
 188  001A              #line 188 "c:\users\user\documents\htk_project\qbell_doorbell_mb_v1_2_f9\app.c"
 188  001A  0F05        	mov a,5
 188  001B  2000     R  	call _LED
 189  001C              #line 189 "c:\users\user\documents\htk_project\qbell_doorbell_mb_v1_2_f9\app.c"
 189  001C  2000     E  	call _adc_getValue
 189  001D  0700     E  	mov a,ra
 189  001E  0080     R  	mov _app_2[10],a
 189  001F  0700     E  	mov a,rb
 189  0020  0080     R  	mov _app_2[11],a
 191  0021              #line 191 "c:\users\user\documents\htk_project\qbell_doorbell_mb_v1_2_f9\app.c"
 191  0021  0F0A        	mov a,10
 191  0022  0080     E  	mov _itoa_2[4],a
 191  0023  1F00     E  	clr _itoa_2[5]
 191  0024  0F00     R  	mov a,low offset _app_2
 191  0025  0080     E  	mov _itoa_2[2],a
 191  0026  0F00     R  	mov a,high offset _app_2
 191  0027  0080     E  	mov _itoa_2[3],a
 191  0028  0700     R  	mov a,_app_2[10]
 191  0029  0080     E  	mov _itoa_2[0],a
 191  002A  0700     R  	mov a,_app_2[11]
 191  002B  0080     E  	mov _itoa_2[1],a
 191  002C  2000     E  	call _itoa
 192  002D              #line 192 "c:\users\user\documents\htk_project\qbell_doorbell_mb_v1_2_f9\app.c"
 192  002D  0F00     R  	mov a,low offset _LC11
 192  002E  0080     E  	mov _uart_printf_2[0],a
 192  002F  0F00     R  	mov a,high offset _LC11
 192  0030  0080     E  	mov _uart_printf_2[1],a
 192  0031  2000     E  	call _uart_printf
 193  0032              #line 193 "c:\users\user\documents\htk_project\qbell_doorbell_mb_v1_2_f9\app.c"
 193  0032  0F00     R  	mov a,low offset _LC12
 193  0033  0080     E  	mov _uart_printf_2[0],a
 193  0034  0F00     R  	mov a,high offset _LC12
 193  0035  0080     E  	mov _uart_printf_2[1],a
 193  0036  2000     E  	call _uart_printf
 194  0037              #line 194 "c:\users\user\documents\htk_project\qbell_doorbell_mb_v1_2_f9\app.c"
 194  0037  0F00     R  	mov a,low offset _app_2
 194  0038  0080     E  	mov _uart_printf_2[0],a
 194  0039  0F00     R  	mov a,high offset _app_2
 194  003A  0080     E  	mov _uart_printf_2[1],a
 194  003B  2000     E  	call _uart_printf
 195  003C              #line 195 "c:\users\user\documents\htk_project\qbell_doorbell_mb_v1_2_f9\app.c"
 195  003C  0F00     R  	mov a,low offset _LC3
 195  003D  0080     E  	mov _uart_printf_2[0],a
 195  003E  0F00     R  	mov a,high offset _LC3
 195  003F  0080     E  	mov _uart_printf_2[1],a
 195  0040  2000     E  	call _uart_printf
"File: app.c         Assembler  Version HGASM0202      Page 13

 203  0041              #line 203 "c:\users\user\documents\htk_project\qbell_doorbell_mb_v1_2_f9\app.c"
 203  0041  0F01        	mov a,1
 203  0042  2000     E  	call _lvd_mode_select
 204  0043              #line 204 "c:\users\user\documents\htk_project\qbell_doorbell_mb_v1_2_f9\app.c"
 204  0043  0F01        	mov a,1
 204  0044  0080     E  	mov _delay_2[0],a
 204  0045  1F00     E  	clr _delay_2[1]
 204  0046  2000     E  	call _delay
 205  0047              #line 205 "c:\users\user\documents\htk_project\qbell_doorbell_mb_v1_2_f9\app.c"
 205  0047  0F01        	mov a,1
 205  0048  2000     E  	call _lvd_read_select
 206  0049              #line 206 "c:\users\user\documents\htk_project\qbell_doorbell_mb_v1_2_f9\app.c"
 206  0049  0F01        	mov a,1
 206  004A  0080     E  	mov _delay_2[0],a
 206  004B  1F00     E  	clr _delay_2[1]
 206  004C  2000     E  	call _delay
 207  004D              #line 207 "c:\users\user\documents\htk_project\qbell_doorbell_mb_v1_2_f9\app.c"
 207  004D  0F02        	mov a,2
 207  004E  2000     E  	call _lvd_mode_select
 208  004F              #line 208 "c:\users\user\documents\htk_project\qbell_doorbell_mb_v1_2_f9\app.c"
 208  004F  0F01        	mov a,1
 208  0050  0080     E  	mov _delay_2[0],a
 208  0051  1F00     E  	clr _delay_2[1]
 208  0052  2000     E  	call _delay
 209  0053              #line 209 "c:\users\user\documents\htk_project\qbell_doorbell_mb_v1_2_f9\app.c"
 209  0053  0F02        	mov a,2
 209  0054  2000     E  	call _lvd_read_select
 210  0055              #line 210 "c:\users\user\documents\htk_project\qbell_doorbell_mb_v1_2_f9\app.c"
 210  0055  0F01        	mov a,1
 210  0056  0080     E  	mov _delay_2[0],a
 210  0057  1F00     E  	clr _delay_2[1]
 210  0058  2000     E  	call _delay
 212  0059              #line 212 "c:\users\user\documents\htk_project\qbell_doorbell_mb_v1_2_f9\app.c"
 212  0059  1700     E  	sdza _intF[42]
 212  005A  2800     R  	jmp _L49
 214  005B              #line 214 "c:\users\user\documents\htk_project\qbell_doorbell_mb_v1_2_f9\app.c"
 214  005B  1700     E  	sdza _intF[43]
 214  005C  2800     R  	jmp _L50
 216  005D              #line 216 "c:\users\user\documents\htk_project\qbell_doorbell_mb_v1_2_f9\app.c"
 216  005D  0F11        	mov a,17
 216  005E  0080     E  	mov _intF[2],a
 217  005F              #line 217 "c:\users\user\documents\htk_project\qbell_doorbell_mb_v1_2_f9\app.c"
 217  005F  0F00     R  	mov a,low offset _LC13
 217  0060  0080     E  	mov _uart_printf_2[0],a
 217  0061  0F00     R  	mov a,high offset _LC13
 217  0062  0080     E  	mov _uart_printf_2[1],a
 217  0063  2800     R  	jmp _L58
 217  0064              _L50:
 221  0064              #line 221 "c:\users\user\documents\htk_project\qbell_doorbell_mb_v1_2_f9\app.c"
 221  0064  0F09        	mov a,9
 221  0065  0080     E  	mov _intF[2],a
 222  0066              #line 222 "c:\users\user\documents\htk_project\qbell_doorbell_mb_v1_2_f9\app.c"
 222  0066  0F00     R  	mov a,low offset _LC14
 222  0067  0080     E  	mov _uart_printf_2[0],a
 222  0068  0F00     R  	mov a,high offset _LC14
 222  0069  0080     E  	mov _uart_printf_2[1],a
 222  006A  2800     R  	jmp _L58
 222  006B              _L49:
 228  006B              #line 228 "c:\users\user\documents\htk_project\qbell_doorbell_mb_v1_2_f9\app.c"
 228  006B  0FFC        	mov a,252
"File: app.c         Assembler  Version HGASM0202      Page 14

 228  006C  0200     R  	sub a,_app_2[10]
 228  006D  0F08        	mov a,8
 228  006E  1200     R  	sbc a,_app_2[11]
 228  006F  3C0A        	sz c
 228  0070  2800     R  	jmp _L52
 230  0071              #line 230 "c:\users\user\documents\htk_project\qbell_doorbell_mb_v1_2_f9\app.c"
 230  0071  0F08        	mov a,8
 230  0072  0080     E  	mov _intF[2],a
 231  0073              #line 231 "c:\users\user\documents\htk_project\qbell_doorbell_mb_v1_2_f9\app.c"
 231  0073  0F00     R  	mov a,low offset _LC15
 231  0074  0080     E  	mov _uart_printf_2[0],a
 231  0075  0F00     R  	mov a,high offset _LC15
 231  0076  0080     E  	mov _uart_printf_2[1],a
 231  0077  2800     R  	jmp _L58
 231  0078              _L52:
 235  0078              #line 235 "c:\users\user\documents\htk_project\qbell_doorbell_mb_v1_2_f9\app.c"
 235  0078  0FDF        	mov a,223
 235  0079  0300     R  	add a,_app_2[10]
 235  007A  0080     E  	mov rb,a
 235  007B  0FF7        	mov a,247
 235  007C  1300     R  	adc a,_app_2[11]
 235  007D  0080     E  	mov rc,a
 235  007E  0FDA        	mov a,218
 235  007F  0200     E  	sub a,rb
 235  0080  0F00        	mov a,0
 235  0081  1200     E  	sbc a,rc
 235  0082  380A        	snz c
 235  0083  2800     R  	jmp _L53
 237  0084              #line 237 "c:\users\user\documents\htk_project\qbell_doorbell_mb_v1_2_f9\app.c"
 237  0084  0F09        	mov a,9
 237  0085  0080     E  	mov _intF[2],a
 239  0086              #line 239 "c:\users\user\documents\htk_project\qbell_doorbell_mb_v1_2_f9\app.c"
 239  0086  0F00     R  	mov a,low offset _LC16
 239  0087  0080     E  	mov _uart_printf_2[0],a
 239  0088  0F00     R  	mov a,high offset _LC16
 239  0089  0080     E  	mov _uart_printf_2[1],a
 239  008A  2800     R  	jmp _L58
 239  008B              _L53:
 242  008B              #line 242 "c:\users\user\documents\htk_project\qbell_doorbell_mb_v1_2_f9\app.c"
 242  008B  0F1F        	mov a,31
 242  008C  0200     R  	sub a,_app_2[10]
 242  008D  0F08        	mov a,8
 242  008E  1200     R  	sbc a,_app_2[11]
 242  008F  380A        	snz c
 242  0090  2800     R  	jmp _L54
 244  0091              #line 244 "c:\users\user\documents\htk_project\qbell_doorbell_mb_v1_2_f9\app.c"
 244  0091  0F11        	mov a,17
 244  0092  0080     E  	mov _intF[2],a
 246  0093              #line 246 "c:\users\user\documents\htk_project\qbell_doorbell_mb_v1_2_f9\app.c"
 246  0093  0F00     R  	mov a,low offset _LC17
 246  0094  0080     E  	mov _uart_printf_2[0],a
 246  0095  0F00     R  	mov a,high offset _LC17
 246  0096  0080     E  	mov _uart_printf_2[1],a
 246  0097  2800     R  	jmp _L58
 246  0098              _L54:
 251  0098              #line 251 "c:\users\user\documents\htk_project\qbell_doorbell_mb_v1_2_f9\app.c"
 251  0098  0F09        	mov a,9
 251  0099  0080     E  	mov _intF[2],a
 253  009A              #line 253 "c:\users\user\documents\htk_project\qbell_doorbell_mb_v1_2_f9\app.c"
 253  009A  0F00     R  	mov a,low offset _LC18
"File: app.c         Assembler  Version HGASM0202      Page 15

 253  009B  0080     E  	mov _uart_printf_2[0],a
 253  009C  0F00     R  	mov a,high offset _LC18
 253  009D  0080     E  	mov _uart_printf_2[1],a
 253  009E              _L58:
 253  009E  2000     E  	call _uart_printf
 257  009F              #line 257 "c:\users\user\documents\htk_project\qbell_doorbell_mb_v1_2_f9\app.c"
 257  009F  0F08        	mov a,8
 257  00A0  0080     E  	mov _KEY_Process_2[0],a
 257  00A1  0F01        	mov a,1
 257  00A2  2000     E  	call _KEY_Process
 258  00A3              #line 258 "c:\users\user\documents\htk_project\qbell_doorbell_mb_v1_2_f9\app.c"
 258  00A3  0F14        	mov a,20
 258  00A4  0080     E  	mov _delay_2[0],a
 258  00A5  1F00     E  	clr _delay_2[1]
 258  00A6  2000     E  	call _delay
 259  00A7              #line 259 "c:\users\user\documents\htk_project\qbell_doorbell_mb_v1_2_f9\app.c"
 259  00A7  0F01        	mov a,1
 259  00A8  0080     E  	mov _intF[31],a
 260  00A9              #line 260 "c:\users\user\documents\htk_project\qbell_doorbell_mb_v1_2_f9\app.c"
 260  00A9  0F00        	mov a,0
 260  00AA  2000     R  	call _LED
 260  00AB              _L48:
 260  00AB              #pragma debug scope 9 1
 263  00AB              #line 263 "c:\users\user\documents\htk_project\qbell_doorbell_mb_v1_2_f9\app.c"
 263  00AB  1080     E  	sz _intF[31]
 263  00AC  2800     R  	jmp _L55
 265  00AD              #line 265 "c:\users\user\documents\htk_project\qbell_doorbell_mb_v1_2_f9\app.c"
 265  00AD  0F00     R  	mov a,low offset _LC19
 265  00AE  0080     E  	mov _uart_printf_2[0],a
 265  00AF  0F00     R  	mov a,high offset _LC19
 265  00B0  0080     E  	mov _uart_printf_2[1],a
 265  00B1  2000     E  	call _uart_printf
 266  00B2              #line 266 "c:\users\user\documents\htk_project\qbell_doorbell_mb_v1_2_f9\app.c"
 266  00B2  0F01        	mov a,1
 266  00B3  0080     E  	mov _intF[32],a
 267  00B4              #line 267 "c:\users\user\documents\htk_project\qbell_doorbell_mb_v1_2_f9\app.c"
 267  00B4  2000     E  	call _System_deepsleep
 267  00B5              _L55:
 275  00B5              #line 275 "c:\users\user\documents\htk_project\qbell_doorbell_mb_v1_2_f9\app.c"
 275  00B5  0700     E  	mov a,_BC3602_T[0]
 275  00B6  0A04        	sub a,4
 275  00B7  390A        	snz z
 275  00B8  2800     R  	jmp _L56
 276  00B9              #line 276 "c:\users\user\documents\htk_project\qbell_doorbell_mb_v1_2_f9\app.c"
 276  00B9  0F00     E  	mov a,low offset _BC3602_T
 276  00BA  0080     E  	mov _ExtendFIFO_TX_Process_2[0],a
 276  00BB  0F00     E  	mov a,high offset _BC3602_T
 276  00BC  0080     E  	mov _ExtendFIFO_TX_Process_2[1],a
 276  00BD  2000     E  	call _ExtendFIFO_TX_Process
 276  00BE              _L56:
 278  00BE              #line 278 "c:\users\user\documents\htk_project\qbell_doorbell_mb_v1_2_f9\app.c"
 278  00BE  0700     E  	mov a,_BC3602_T[0]
 278  00BF  0A05        	sub a,5
 278  00C0  390A        	snz z
 278  00C1  2800     R  	jmp _L57
 279  00C2              #line 279 "c:\users\user\documents\htk_project\qbell_doorbell_mb_v1_2_f9\app.c"
 279  00C2  0F00     E  	mov a,low offset _BC3602_T
 279  00C3  0080     E  	mov _ExtendFIFO_RX_Process_2[0],a
 279  00C4  0F00     E  	mov a,high offset _BC3602_T
 279  00C5  0080     E  	mov _ExtendFIFO_RX_Process_2[1],a
"File: app.c         Assembler  Version HGASM0202      Page 16

 279  00C6  2000     E  	call _ExtendFIFO_RX_Process
 279  00C7              _L57:
 282  00C7              #line 282 "c:\users\user\documents\htk_project\qbell_doorbell_mb_v1_2_f9\app.c"
 282  00C7  0F00     E  	mov a,low offset _BC3602_T
 282  00C8  0080     E  	mov _RF_Finished_Process_2[0],a
 282  00C9  0F00     E  	mov a,high offset _BC3602_T
 282  00CA  0080     E  	mov _RF_Finished_Process_2[1],a
 282  00CB  2000     E  	call _RF_Finished_Process
 282  00CC  0003        	ret
 282  00CD              _app endp
 282  00CD              #line 282 "c:\users\user\documents\htk_project\qbell_doorbell_mb_v1_2_f9\app.c"
 282  00CD              #pragma debug scope 1 1
 282  00CD              ___pb equ [37]
 282  00CD              ___pbc equ [38]
 282  00CD              public _initSys
 282  00CD              #pragma debug scope 11 1
 356  00CD              #line 356 "c:\users\user\documents\htk_project\qbell_doorbell_mb_v1_2_f9\app.c"
 356  0000              _initSys .section 'code'
 356  0000              _initSys proc
 358  0000              #line 358 "c:\users\user\documents\htk_project\qbell_doorbell_mb_v1_2_f9\app.c"
 358  0000  2000     E  	call _Sys_init
 359  0001              #line 359 "c:\users\user\documents\htk_project\qbell_doorbell_mb_v1_2_f9\app.c"
 359  0001  2000     E  	call _sysInit
 361  0002              #line 361 "c:\users\user\documents\htk_project\qbell_doorbell_mb_v1_2_f9\app.c"
 361  0002  2000     E  	call _RF_Init
 362  0003              #line 362 "c:\users\user\documents\htk_project\qbell_doorbell_mb_v1_2_f9\app.c"
 362  0003  2000     E  	call _RF_Parameter_loading
 363  0004              #line 363 "c:\users\user\documents\htk_project\qbell_doorbell_mb_v1_2_f9\app.c"
 363  0004  0FCD        	mov a,205
 363  0005  0080     E  	mov _SpiWriteRegCMD_2[0],a
 363  0006  0F07        	mov a,7
 363  0007  2000     E  	call _SpiWriteRegCMD
 364  0008              #line 364 "c:\users\user\documents\htk_project\qbell_doorbell_mb_v1_2_f9\app.c"
 364  0008  0F05        	mov a,5
 364  0009  0080     E  	mov _BC3602_T[0],a
 368  000A              #line 368 "c:\users\user\documents\htk_project\qbell_doorbell_mb_v1_2_f9\app.c"
 368  000A  3625        	clr [37].4
 369  000B              #line 369 "c:\users\user\documents\htk_project\qbell_doorbell_mb_v1_2_f9\app.c"
 369  000B  3226        	set [38].4
 370  000C              #line 370 "c:\users\user\documents\htk_project\qbell_doorbell_mb_v1_2_f9\app.c"
 370  000C  3011        	set [17].0
 371  000D              #line 371 "c:\users\user\documents\htk_project\qbell_doorbell_mb_v1_2_f9\app.c"
 371  000D              ;# 371 "c:\users\user\documents\htk_project\qbell_doorbell_mb_v1_2_f9\app.c" 1
 371  000D  0001        	clr wdt
 371  000E  0003        	ret
 371  000F              _initSys endp
 371  000F              #line 371 "c:\users\user\documents\htk_project\qbell_doorbell_mb_v1_2_f9\app.c"
 371  000F              #pragma debug scope 1 1
 371  000F              #pragma debug struct_end
 371  000F              #pragma debug struct_end
 371  000F              #pragma debug union_end
 371  000F              #pragma debug union_end
 371  000F              #pragma debug variable 46 1 ___intc0 "__intc0" 1
 371  000F              #pragma debug struct_end
 371  000F              #pragma debug struct_end
 371  000F              #pragma debug union_end
 371  000F              #pragma debug union_end
 371  000F              #pragma debug variable 48 1 ___pa "__pa" 1
 371  000F              #pragma debug struct_end
 371  000F              #pragma debug struct_end
"File: app.c         Assembler  Version HGASM0202      Page 17

 371  000F              #pragma debug union_end
 371  000F              #pragma debug union_end
 371  000F              #pragma debug variable 50 1 ___pb "__pb" 1
 371  000F              #pragma debug struct_end
 371  000F              #pragma debug struct_end
 371  000F              #pragma debug union_end
 371  000F              #pragma debug union_end
 371  000F              #pragma debug variable 52 1 ___pbc "__pbc" 1
 371  000F              
 371  000F              ; output external variables
 371  000F              extern _BC3602_T:byte
 371  000F              extern _Mflag:byte
 371  000F              extern _intF:byte
 371  000F              extern _uart_printf_2:byte
 371  000F              extern _uart_printf:near
 371  000F              extern _eepromDeviceAddrRead:near
 371  000F              extern _delay_2:byte
 371  000F              extern _delay:near
 371  000F              extern _eepromDeviceAddrCpyCheck:near
 371  000F              extern _eepromPstatusCheck:near
 371  000F              extern _eepromP1Write:near
 371  000F              extern _eepromP1Read:near
 371  000F              extern _eepromPstatusWrite:near
 371  000F              extern _uart_send:near
 371  000F              extern _memcmp_2:byte
 371  000F              extern _memcmp:near
 371  000F              extern _eepromP2Write:near
 371  000F              extern _eepromP2Read:near
 371  000F              extern _adc_getValue:near
 371  000F              extern _itoa_2:byte
 371  000F              extern _itoa:near
 371  000F              extern _lvd_mode_select:near
 371  000F              extern _lvd_read_select:near
 371  000F              extern _KEY_Process_2:byte
 371  000F              extern _KEY_Process:near
 371  000F              extern _System_deepsleep:near
 371  000F              extern _ExtendFIFO_TX_Process_2:byte
 371  000F              extern _ExtendFIFO_TX_Process:near
 371  000F              extern _ExtendFIFO_RX_Process_2:byte
 371  000F              extern _ExtendFIFO_RX_Process:near
 371  000F              extern _RF_Finished_Process_2:byte
 371  000F              extern _RF_Finished_Process:near
 371  000F              extern _Sys_init:near
 371  000F              extern _sysInit:near
 371  000F              extern _RF_Init:near
 371  000F              extern _RF_Parameter_loading:near
 371  000F              extern _SpiWriteRegCMD_2:byte
 371  000F              extern _SpiWriteRegCMD:near
 371  000F              
 371  000F              ; 
 371  000F              ; Generated by holtek-gcc v3.19, Mon Oct 17 14:57:49 2022
 371  000F              ; Rebuild 718
 371  000F              ; end of file


        0 Errors, 0