"File: hal_eeprom.c  Assembler  Version HGASM0202      Page 1


   1  0000              ; Generated by holtek-gcc v3.19, Tue Oct 18 12:10:04 2022
   2  0000              ; 
   3  0000              ; Configuration:
   4  0000              ;       with long instruction
   5  0000              ;       Single ROM, Multi-RAM
   6  0000              ;       bits_per_rom_unit:16
   7  0000              ;       with mp1
   8  0000              ;       with tbhp, address(0x9)
   9  0000              ;          Use tabrd-const
  10  0000              ;       
  11  0000              ; SFR address of long-instruction arch:
  12  0000              ;    mp0 = -1,1,0
  13  0000              ;    mp1 = 4,3,2
  14  0000              ;    mp2 = 14,13,12
  15  0000              ;    tbp = 9,7,8
  16  0000              ;    acc = 5
  17  0000              ;    pcl = 6
  18  0000              ;    status = 10
  19  0000              ;    bp = 11
  20  0000              ;    intc = 17
  21  0000              ;       
  22  0000              ;       
  23  0000              ; use 'tabrdc' instead of 'tabrd'
  24  0000              ;       
  25  0000              
  26  0000              #pragma translator "holtek-gcc 4.6.4" "3.19" "build 20130711"
  27  0000              ; Rebuild 718
  28  0000              
  29  0000              ir equ [2]
  30  0000              mp equ [3]
  31  0000              sbp equ [4]
  32  0000              acc equ [5]
  33  0000              bp equ [11]
  34  0000              tblp equ [7]
  35  0000              tbhp equ [9]
  36  0000              status equ [10]
  37  0000              c equ [10].0
  38  0000              ac equ [10].1
  39  0000              z equ [10].2
  40  0000              ov equ [10].3
  41  0000              cz equ [10].6
  42  0000              sc equ [10].7
  43  0000              intc equ [17]
  44  0000              
  45  0000              extern ra:byte
  46  0000              extern rb:byte
  47  0000              extern rc:byte
  48  0000              extern rd:byte
  49  0000              extern re:byte
  50  0000              extern rf:byte
  51  0000              extern rg:byte
  52  0000              extern rh:byte
  53  0000              extern _Crom2Prom:near
  54  0000              extern _Crom2PromNext:near
  55  0000              
  56  0000              RAMBANK 0 @BITDATASEC, @BITDATASEC1
  57  0000              @HCCINIT	.section 'data'
  58  0000              @HCCINIT0	.section 'data'
  59  0000              @BITDATASEC	 .section 'data'
"File: hal_eeprom.ASM  Assembler  Version HGASM0202      Page 2

  60  0000              @BITDATASEC1	 .section 'data'
  61  0000              
  62  0000              #pragma debug scope 1 1
  63  0000              	extern __DELAY3:near
  64  0000              	extern __DELAYX3:near
  65  0000              	extern __DELAYX6:near
  66  0000              	extern __DELAYY5:near
  67  0000              	extern __DELAYY3:near
  68  0000              	extern _builtin_holtek_delay_2:byte
  69  0000              ___eec equ [320]
  70  0000              ___mp1h equ [4]
  71  0000              public _eeprom_init
  72  0000              #pragma debug scope 2 1

   8  0000              #line 8 "c:\users\user\documents\htk_project\qbell_doorbell_mb_v1_2_f9\hal_eeprom.c"
   8  0000              _eeprom_init .section 'code'
   8  0000              _eeprom_init proc
   9  0000              #line 9 "c:\users\user\documents\htk_project\qbell_doorbell_mb_v1_2_f9\hal_eeprom.c"
   9  0000  B540 0001   	lclr [320].2
  10  0002              #line 10 "c:\users\user\documents\htk_project\qbell_doorbell_mb_v1_2_f9\hal_eeprom.c"
  10  0002  1F04        	clr [4]
  10  0003  0003        	ret
  10  0004              _eeprom_init endp
  10  0004              #line 10 "c:\users\user\documents\htk_project\qbell_doorbell_mb_v1_2_f9\hal_eeprom.c"
  10  0004              #pragma debug scope 1 1
  10  0004              ___intc0 equ [17]
  10  0004              ___eea equ [30]
  10  0004              ___eed equ [31]
  10  0004              ___mp1l equ [3]
  10  0004              ___iar1 equ [2]
  10  0004              public _eeprom_write
  10  0004              #pragma debug scope 3 1
  14  0004              #line 14 "c:\users\user\documents\htk_project\qbell_doorbell_mb_v1_2_f9\hal_eeprom.c"
  14  0000              _eeprom_write .section 'code'
  14  0000              _eeprom_write proc
  14  0000              public _eeprom_write_2
  14  0000  0002[           local _eeprom_write_2 db 2 dup(?)	; 1,1
            00
            ]
  14  0000  0080     R  	mov _eeprom_write_2[1],a
  14  0001              #pragma debug variable 8 3 _eeprom_write_2+1 "addrC"
  14  0001              #pragma debug variable 8 3 _eeprom_write_2+0 "byteValue"
  44  0001              #line 44 "c:\users\user\documents\htk_project\qbell_doorbell_mb_v1_2_f9\hal_eeprom.c"
  44  0001  0711        	mov a,[17]
  44  0002  0E01        	and a,1
  44  0003  0080     E  	mov ra,a
  45  0004              #line 45 "c:\users\user\documents\htk_project\qbell_doorbell_mb_v1_2_f9\hal_eeprom.c"
  45  0004  3411        	clr [17].0
  47  0005              #line 47 "c:\users\user\documents\htk_project\qbell_doorbell_mb_v1_2_f9\hal_eeprom.c"
  47  0005  0700     R  	mov a,_eeprom_write_2[1]
  47  0006  009E        	mov [30],a
  48  0007              #line 48 "c:\users\user\documents\htk_project\qbell_doorbell_mb_v1_2_f9\hal_eeprom.c"
  48  0007  0700     R  	mov a,_eeprom_write_2[0]
  48  0008  009F        	mov [31],a
  49  0009              #line 49 "c:\users\user\documents\htk_project\qbell_doorbell_mb_v1_2_f9\hal_eeprom.c"
  49  0009  0F40        	mov a,64
  49  000A  0083        	mov [3],a
  50  000B              #line 50 "c:\users\user\documents\htk_project\qbell_doorbell_mb_v1_2_f9\hal_eeprom.c"
  50  000B  0F01        	mov a,1
  50  000C  0084        	mov [4],a
"File: hal_eeprom.c  Assembler  Version HGASM0202      Page 3

  53  000D              #line 53 "c:\users\user\documents\htk_project\qbell_doorbell_mb_v1_2_f9\hal_eeprom.c"
  53  000D  3182        	set [2].3
  54  000E              #line 54 "c:\users\user\documents\htk_project\qbell_doorbell_mb_v1_2_f9\hal_eeprom.c"
  54  000E  3102        	set [2].2
  54  000F              _L4:
  56  000F              #line 56 "c:\users\user\documents\htk_project\qbell_doorbell_mb_v1_2_f9\hal_eeprom.c"
  56  000F  3D02        	sz [2].2
  56  0010  2800     R  	jmp _L4
  57  0011              #line 57 "c:\users\user\documents\htk_project\qbell_doorbell_mb_v1_2_f9\hal_eeprom.c"
  57  0011  3411        	clr [17].0
  57  0012  0700     E  	mov a,ra
  57  0013  0591        	orm a,[17]
  58  0014              #line 58 "c:\users\user\documents\htk_project\qbell_doorbell_mb_v1_2_f9\hal_eeprom.c"
  58  0014  1F02        	clr [2]
  59  0015              #line 59 "c:\users\user\documents\htk_project\qbell_doorbell_mb_v1_2_f9\hal_eeprom.c"
  59  0015  1F04        	clr [4]
  59  0016  0003        	ret
  59  0017              _eeprom_write endp
  59  0017              #line 59 "c:\users\user\documents\htk_project\qbell_doorbell_mb_v1_2_f9\hal_eeprom.c"
  59  0017              #pragma debug scope 1 1
  59  0017              public _eeprom_read
  59  0017              #pragma debug scope 4 1
  66  0017              #line 66 "c:\users\user\documents\htk_project\qbell_doorbell_mb_v1_2_f9\hal_eeprom.c"
  66  0000              _eeprom_read .section 'code'
  66  0000              _eeprom_read proc
  66  0000  0002[           local _eeprom_read_2 db 2 dup(?)	; 0,2
            00
            ]
  66  0000  0080     R  	mov _eeprom_read_2[0],a
  66  0001              #pragma debug variable 8 4 _eeprom_read_2+0 "addrV"
  90  0001              #line 90 "c:\users\user\documents\htk_project\qbell_doorbell_mb_v1_2_f9\hal_eeprom.c"
  90  0001  0711        	mov a,[17]
  90  0002  0E01        	and a,1
  90  0003  0080     R  	mov _eeprom_read_2[1],a
  91  0004              #line 91 "c:\users\user\documents\htk_project\qbell_doorbell_mb_v1_2_f9\hal_eeprom.c"
  91  0004  3411        	clr [17].0
  93  0005              #line 93 "c:\users\user\documents\htk_project\qbell_doorbell_mb_v1_2_f9\hal_eeprom.c"
  93  0005  0700     R  	mov a,_eeprom_read_2[0]
  93  0006  009E        	mov [30],a
  94  0007              #line 94 "c:\users\user\documents\htk_project\qbell_doorbell_mb_v1_2_f9\hal_eeprom.c"
  94  0007  0F40        	mov a,64
  94  0008  0083        	mov [3],a
  95  0009              #line 95 "c:\users\user\documents\htk_project\qbell_doorbell_mb_v1_2_f9\hal_eeprom.c"
  95  0009  0F01        	mov a,1
  95  000A  0084        	mov [4],a
  96  000B              #line 96 "c:\users\user\documents\htk_project\qbell_doorbell_mb_v1_2_f9\hal_eeprom.c"
  96  000B  0F0A        	mov a,10
  96  000C  0080     E  	mov _delay_2[0],a
  96  000D  1F00     E  	clr _delay_2[1]
  96  000E  2000     E  	call _delay
  99  000F              #line 99 "c:\users\user\documents\htk_project\qbell_doorbell_mb_v1_2_f9\hal_eeprom.c"
  99  000F  3082        	set [2].1
 100  0010              #line 100 "c:\users\user\documents\htk_project\qbell_doorbell_mb_v1_2_f9\hal_eeprom.c"
 100  0010  3002        	set [2].0
 100  0011              _L8:
 101  0011              #line 101 "c:\users\user\documents\htk_project\qbell_doorbell_mb_v1_2_f9\hal_eeprom.c"
 101  0011  3C02        	sz [2].0
 101  0012  2800     R  	jmp _L8
 102  0013              #line 102 "c:\users\user\documents\htk_project\qbell_doorbell_mb_v1_2_f9\hal_eeprom.c"
 102  0013  3411        	clr [17].0
"File: hal_eeprom.c  Assembler  Version HGASM0202      Page 4

 102  0014  0700     R  	mov a,_eeprom_read_2[1]
 102  0015  0591        	orm a,[17]
 103  0016              #line 103 "c:\users\user\documents\htk_project\qbell_doorbell_mb_v1_2_f9\hal_eeprom.c"
 103  0016  1F02        	clr [2]
 104  0017              #line 104 "c:\users\user\documents\htk_project\qbell_doorbell_mb_v1_2_f9\hal_eeprom.c"
 104  0017  1F04        	clr [4]
 105  0018              #line 105 "c:\users\user\documents\htk_project\qbell_doorbell_mb_v1_2_f9\hal_eeprom.c"
 105  0018  071F        	mov a,[31]
 105  0019  0080     E  	mov ra,a
 109  001A              #line 109 "c:\users\user\documents\htk_project\qbell_doorbell_mb_v1_2_f9\hal_eeprom.c"
 109  001A  0700     E  	mov a,ra
 109  001B  0003        	ret
 109  001C              _eeprom_read endp
 109  001C              #line 109 "c:\users\user\documents\htk_project\qbell_doorbell_mb_v1_2_f9\hal_eeprom.c"
 109  001C              #pragma debug scope 1 1
 109  001C              public _eepromDeviceAddrRead
 109  001C              #pragma debug scope 5 1
 113  001C              #line 113 "c:\users\user\documents\htk_project\qbell_doorbell_mb_v1_2_f9\hal_eeprom.c"
 113  0000              _eepromDeviceAddrRead .section 'code'
 113  0000              _eepromDeviceAddrRead proc
 113  0000  0002[           local _eepromDeviceAddrRead_2 db 2 dup(?)	; 0,2
            00
            ]
 113  0002              #pragma debug variable 8 5 _eepromDeviceAddrRead_2+0 "i"
 113  0000  0F04        	mov a,4
 113  0001  0080     R  	mov _eepromDeviceAddrRead_2[1],a
 115  0002              #line 115 "c:\users\user\documents\htk_project\qbell_doorbell_mb_v1_2_f9\hal_eeprom.c"
 115  0002  1F00     R  	clr _eepromDeviceAddrRead_2[0]
 115  0003              _L11:
 116  0003              #line 116 "c:\users\user\documents\htk_project\qbell_doorbell_mb_v1_2_f9\hal_eeprom.c"
 116  0003  0700     R  	mov a,_eepromDeviceAddrRead_2[0]
 116  0004  2000     R  	call _eeprom_read
 116  0005  0080     E  	mov ra,a
 116  0006  0F00     E  	mov a,low (offset _intF+13)
 116  0007  0300     R  	add a,_eepromDeviceAddrRead_2[0]
 116  0008  0083        	mov mp,a
 116  0009  0F00     E  	mov a,high (offset _intF+13)
 116  000A  1F04        	clr sbp
 116  000B  1384        	adcm a,sbp
 116  000C  0700     E  	mov a,ra
 116  000D  0082        	mov ir,a
 115  000E              #line 115 "c:\users\user\documents\htk_project\qbell_doorbell_mb_v1_2_f9\hal_eeprom.c"
 115  000E  1480     R  	inc _eepromDeviceAddrRead_2[0]
 115  000F  1780     R  	sdz _eepromDeviceAddrRead_2[1]
 115  0010  2800     R  	jmp _L11
 115  0011  0003        	ret
 115  0012              _eepromDeviceAddrRead endp
 115  0012              #line 115 "c:\users\user\documents\htk_project\qbell_doorbell_mb_v1_2_f9\hal_eeprom.c"
 115  0012              #pragma debug scope 1 1
 115  0012              public _eepromP1Read
 115  0012              #pragma debug scope 6 1
 120  0012              #line 120 "c:\users\user\documents\htk_project\qbell_doorbell_mb_v1_2_f9\hal_eeprom.c"
 120  0000              _eepromP1Read .section 'code'
 120  0000              _eepromP1Read proc
 120  0000  0002[           local _eepromP1Read_2 db 2 dup(?)	; 0,2
            00
            ]
 120  0002              #pragma debug variable 8 6 _eepromP1Read_2+0 "i"
 120  0000  0F04        	mov a,4
 120  0001  0080     R  	mov _eepromP1Read_2[1],a
"File: hal_eeprom.c  Assembler  Version HGASM0202      Page 5

 122  0002              #line 122 "c:\users\user\documents\htk_project\qbell_doorbell_mb_v1_2_f9\hal_eeprom.c"
 122  0002  0F04        	mov a,4
 122  0003  0080     R  	mov _eepromP1Read_2[0],a
 122  0004              _L14:
 123  0004              #line 123 "c:\users\user\documents\htk_project\qbell_doorbell_mb_v1_2_f9\hal_eeprom.c"
 123  0004  0700     R  	mov a,_eepromP1Read_2[0]
 123  0005  2000     R  	call _eeprom_read
 123  0006  0080     E  	mov ra,a
 123  0007  0F00     E  	mov a,low (offset _intF+15)
 123  0008  0300     R  	add a,_eepromP1Read_2[0]
 123  0009  0083        	mov mp,a
 123  000A  0F00     E  	mov a,high (offset _intF+15)
 123  000B  1F04        	clr sbp
 123  000C  1384        	adcm a,sbp
 123  000D  0700     E  	mov a,ra
 123  000E  0082        	mov ir,a
 122  000F              #line 122 "c:\users\user\documents\htk_project\qbell_doorbell_mb_v1_2_f9\hal_eeprom.c"
 122  000F  1480     R  	inc _eepromP1Read_2[0]
 122  0010  1780     R  	sdz _eepromP1Read_2[1]
 122  0011  2800     R  	jmp _L14
 122  0012  0003        	ret
 122  0013              _eepromP1Read endp
 122  0013              #line 122 "c:\users\user\documents\htk_project\qbell_doorbell_mb_v1_2_f9\hal_eeprom.c"
 122  0013              #pragma debug scope 1 1
 122  0013              public _eepromP2Read
 122  0013              #pragma debug scope 7 1
 127  0013              #line 127 "c:\users\user\documents\htk_project\qbell_doorbell_mb_v1_2_f9\hal_eeprom.c"
 127  0000              _eepromP2Read .section 'code'
 127  0000              _eepromP2Read proc
 127  0000  0002[           local _eepromP2Read_2 db 2 dup(?)	; 0,2
            00
            ]
 127  0002              #pragma debug variable 8 7 _eepromP2Read_2+0 "i"
 127  0000  0F04        	mov a,4
 127  0001  0080     R  	mov _eepromP2Read_2[1],a
 129  0002              #line 129 "c:\users\user\documents\htk_project\qbell_doorbell_mb_v1_2_f9\hal_eeprom.c"
 129  0002  0F08        	mov a,8
 129  0003  0080     R  	mov _eepromP2Read_2[0],a
 129  0004              _L17:
 130  0004              #line 130 "c:\users\user\documents\htk_project\qbell_doorbell_mb_v1_2_f9\hal_eeprom.c"
 130  0004  0700     R  	mov a,_eepromP2Read_2[0]
 130  0005  2000     R  	call _eeprom_read
 130  0006  0080     E  	mov ra,a
 130  0007  0F00     E  	mov a,low (offset _intF+16)
 130  0008  0300     R  	add a,_eepromP2Read_2[0]
 130  0009  0083        	mov mp,a
 130  000A  0F00     E  	mov a,high (offset _intF+16)
 130  000B  1F04        	clr sbp
 130  000C  1384        	adcm a,sbp
 130  000D  0700     E  	mov a,ra
 130  000E  0082        	mov ir,a
 129  000F              #line 129 "c:\users\user\documents\htk_project\qbell_doorbell_mb_v1_2_f9\hal_eeprom.c"
 129  000F  1480     R  	inc _eepromP2Read_2[0]
 129  0010  1780     R  	sdz _eepromP2Read_2[1]
 129  0011  2800     R  	jmp _L17
 129  0012  0003        	ret
 129  0013              _eepromP2Read endp
 129  0013              #line 129 "c:\users\user\documents\htk_project\qbell_doorbell_mb_v1_2_f9\hal_eeprom.c"
 129  0013              #pragma debug scope 1 1
 129  0013              public _eepromP1Write
"File: hal_eeprom.c  Assembler  Version HGASM0202      Page 6

 129  0013              #pragma debug scope 8 1
 134  0013              #line 134 "c:\users\user\documents\htk_project\qbell_doorbell_mb_v1_2_f9\hal_eeprom.c"
 134  0000              _eepromP1Write .section 'code'
 134  0000              _eepromP1Write proc
 134  0000  0002[           local _eepromP1Write_2 db 2 dup(?)	; 0,2
            00
            ]
 134  0002              #pragma debug variable 8 8 _eepromP1Write_2+0 "i"
 137  0002              #line 137 "c:\users\user\documents\htk_project\qbell_doorbell_mb_v1_2_f9\hal_eeprom.c"
 137  0000  0700     E  	mov a,_intF[4]
 137  0001  0080     E  	mov _intF[19],a
 137  0002  0700     E  	mov a,_intF[5]
 137  0003  0080     E  	mov _intF[20],a
 137  0004  0700     E  	mov a,_intF[6]
 137  0005  0080     E  	mov _intF[21],a
 137  0006  0700     E  	mov a,_intF[7]
 137  0007  0080     E  	mov _intF[22],a
 137  0008  0F04        	mov a,4
 137  0009  0080     R  	mov _eepromP1Write_2[1],a
 137  000A  0F04        	mov a,4
 137  000B  0080     R  	mov _eepromP1Write_2[0],a
 137  000C              _L20:
 140  000C              #line 140 "c:\users\user\documents\htk_project\qbell_doorbell_mb_v1_2_f9\hal_eeprom.c"
 140  000C  0F00     E  	mov a,low (offset _intF+15)
 140  000D  0300     R  	add a,_eepromP1Write_2[0]
 140  000E  0083        	mov mp,a
 140  000F  0F00     E  	mov a,high (offset _intF+15)
 140  0010  1F04        	clr sbp
 140  0011  1384        	adcm a,sbp
 140  0012  2000     E  	call _Crom2Prom
 140  0013  0080     R  	mov _eeprom_write_2[0],a
 140  0014  0700     R  	mov a,_eepromP1Write_2[0]
 140  0015  2000     R  	call _eeprom_write
 139  0016              #line 139 "c:\users\user\documents\htk_project\qbell_doorbell_mb_v1_2_f9\hal_eeprom.c"
 139  0016  1480     R  	inc _eepromP1Write_2[0]
 139  0017  1780     R  	sdz _eepromP1Write_2[1]
 139  0018  2800     R  	jmp _L20
 139  0019  0003        	ret
 139  001A              _eepromP1Write endp
 139  001A              #line 139 "c:\users\user\documents\htk_project\qbell_doorbell_mb_v1_2_f9\hal_eeprom.c"
 139  001A              #pragma debug scope 1 1
 139  001A              public _eepromP2Write
 139  001A              #pragma debug scope 9 1
 144  001A              #line 144 "c:\users\user\documents\htk_project\qbell_doorbell_mb_v1_2_f9\hal_eeprom.c"
 144  0000              _eepromP2Write .section 'code'
 144  0000              _eepromP2Write proc
 144  0000  0002[           local _eepromP2Write_2 db 2 dup(?)	; 0,2
            00
            ]
 144  0002              #pragma debug variable 8 9 _eepromP2Write_2+0 "i"
 147  0002              #line 147 "c:\users\user\documents\htk_project\qbell_doorbell_mb_v1_2_f9\hal_eeprom.c"
 147  0000  0700     E  	mov a,_intF[4]
 147  0001  0080     E  	mov _intF[24],a
 147  0002  0700     E  	mov a,_intF[5]
 147  0003  0080     E  	mov _intF[25],a
 147  0004  0700     E  	mov a,_intF[6]
 147  0005  0080     E  	mov _intF[26],a
 147  0006  0700     E  	mov a,_intF[7]
 147  0007  0080     E  	mov _intF[27],a
 147  0008  0F04        	mov a,4
"File: hal_eeprom.c  Assembler  Version HGASM0202      Page 7

 147  0009  0080     R  	mov _eepromP2Write_2[1],a
 147  000A  0F08        	mov a,8
 147  000B  0080     R  	mov _eepromP2Write_2[0],a
 147  000C              _L23:
 150  000C              #line 150 "c:\users\user\documents\htk_project\qbell_doorbell_mb_v1_2_f9\hal_eeprom.c"
 150  000C  0F00     E  	mov a,low (offset _intF+16)
 150  000D  0300     R  	add a,_eepromP2Write_2[0]
 150  000E  0083        	mov mp,a
 150  000F  0F00     E  	mov a,high (offset _intF+16)
 150  0010  1F04        	clr sbp
 150  0011  1384        	adcm a,sbp
 150  0012  2000     E  	call _Crom2Prom
 150  0013  0080     R  	mov _eeprom_write_2[0],a
 150  0014  0700     R  	mov a,_eepromP2Write_2[0]
 150  0015  2000     R  	call _eeprom_write
 149  0016              #line 149 "c:\users\user\documents\htk_project\qbell_doorbell_mb_v1_2_f9\hal_eeprom.c"
 149  0016  1480     R  	inc _eepromP2Write_2[0]
 149  0017  1780     R  	sdz _eepromP2Write_2[1]
 149  0018  2800     R  	jmp _L23
 149  0019  0003        	ret
 149  001A              _eepromP2Write endp
 149  001A              #line 149 "c:\users\user\documents\htk_project\qbell_doorbell_mb_v1_2_f9\hal_eeprom.c"
 149  001A              #pragma debug scope 1 1
 149  001A              public _eepromPstatusCheck
 149  001A              #pragma debug scope 10 1
 154  001A              #line 154 "c:\users\user\documents\htk_project\qbell_doorbell_mb_v1_2_f9\hal_eeprom.c"
 154  0000              _eepromPstatusCheck .section 'code'
 154  0000              _eepromPstatusCheck proc
 155  0000              #line 155 "c:\users\user\documents\htk_project\qbell_doorbell_mb_v1_2_f9\hal_eeprom.c"
 155  0000  0F0C        	mov a,12
 155  0001  2000     R  	call _eeprom_read
 155  0002  0080     E  	mov ra,a
 155  0003  0700     E  	mov a,ra
 155  0004  0080     E  	mov _intF[29],a
 155  0005  0003        	ret
 155  0006              _eepromPstatusCheck endp
 155  0006              #line 155 "c:\users\user\documents\htk_project\qbell_doorbell_mb_v1_2_f9\hal_eeprom.c"
 155  0006              #pragma debug scope 1 1
 155  0006              public _eepromPstatusWrite
 155  0006              #pragma debug scope 11 1
 159  0006              #line 159 "c:\users\user\documents\htk_project\qbell_doorbell_mb_v1_2_f9\hal_eeprom.c"
 159  0000              _eepromPstatusWrite .section 'code'
 159  0000              _eepromPstatusWrite proc
 159  0000  00              local _eepromPstatusWrite_2 db 1 dup(?)	; 0,1
 159  0000  0080     E  	mov ra,a
 159  0001              #pragma debug variable 8 11 _eepromPstatusWrite_2+0 "payload"
 160  0001              #line 160 "c:\users\user\documents\htk_project\qbell_doorbell_mb_v1_2_f9\hal_eeprom.c"
 160  0001  0700     E  	mov a,ra
 160  0002  0080     R  	mov _eeprom_write_2[0],a
 160  0003  0F0C        	mov a,12
 160  0004  2000     R  	call _eeprom_write
 160  0005  0003        	ret
 160  0006              _eepromPstatusWrite endp
 160  0006              #line 160 "c:\users\user\documents\htk_project\qbell_doorbell_mb_v1_2_f9\hal_eeprom.c"
 160  0006              #pragma debug scope 1 1
 160  0006              public _eepromUnpairAll
 160  0006              #pragma debug scope 12 1
 164  0006              #line 164 "c:\users\user\documents\htk_project\qbell_doorbell_mb_v1_2_f9\hal_eeprom.c"
 164  0000              _eepromUnpairAll .section 'code'
 164  0000              _eepromUnpairAll proc
"File: hal_eeprom.c  Assembler  Version HGASM0202      Page 8

 164  0000  00              local _eepromUnpairAll_2 db 1 dup(?)	; 0,1
 164  0001              #pragma debug variable 8 12 _eepromUnpairAll_2+0 "i"
 166  0001              #line 166 "c:\users\user\documents\htk_project\qbell_doorbell_mb_v1_2_f9\hal_eeprom.c"
 166  0000  0F04        	mov a,4
 166  0001  0080     R  	mov _eepromUnpairAll_2[0],a
 166  0002              _L28:
 168  0002              #line 168 "c:\users\user\documents\htk_project\qbell_doorbell_mb_v1_2_f9\hal_eeprom.c"
 168  0002  1F00     R  	clr _eeprom_write_2[0]
 168  0003  0700     R  	mov a,_eepromUnpairAll_2[0]
 168  0004  2000     R  	call _eeprom_write
 166  0005              #line 166 "c:\users\user\documents\htk_project\qbell_doorbell_mb_v1_2_f9\hal_eeprom.c"
 166  0005  1480     R  	inc _eepromUnpairAll_2[0]
 166  0006  0700     R  	mov a,_eepromUnpairAll_2[0]
 166  0007  0A0E        	sub a,14
 166  0008  390A        	snz z
 166  0009  2800     R  	jmp _L28
 166  000A  0003        	ret
 166  000B              _eepromUnpairAll endp
 166  000B              #line 166 "c:\users\user\documents\htk_project\qbell_doorbell_mb_v1_2_f9\hal_eeprom.c"
 166  000B              #pragma debug scope 1 1
 166  0000              @crom	.section 'crom'
 166  0000              _LC0:
 166  0000              	db 045h,045h,050h,052h,04fh,04dh,020h,044h,065h,076h
 166  0005              	db 069h,063h,065h,020h,041h,064h,064h,072h,065h,073h
 166  000A              	db 073h,020h,043h,06fh,070h,079h,020h,052h,065h,061h
 166  000F              	db 064h,020h,044h,06fh,06eh,065h,0ah,00h
 166  0013              public _eepromDeviceAddrCpyRead
 166  0013              #pragma debug scope 13 1
 232  0013              #line 232 "c:\users\user\documents\htk_project\qbell_doorbell_mb_v1_2_f9\hal_eeprom.c"
 232  0000              _eepromDeviceAddrCpyRead .section 'code'
 232  0000              _eepromDeviceAddrCpyRead proc
 232  0000  0002[           local _eepromDeviceAddrCpyRead_2 db 2 dup(?)	; 0,2
            00
            ]
 232  0002              #pragma debug variable 8 13 _eepromDeviceAddrCpyRead_2+0 "i"
 232  0000  0F04        	mov a,4
 232  0001  0080     R  	mov _eepromDeviceAddrCpyRead_2[1],a
 234  0002              #line 234 "c:\users\user\documents\htk_project\qbell_doorbell_mb_v1_2_f9\hal_eeprom.c"
 234  0002  0F05        	mov a,5
 234  0003  0080     R  	mov _eepromDeviceAddrCpyRead_2[0],a
 234  0004              _L31:
 235  0004              #line 235 "c:\users\user\documents\htk_project\qbell_doorbell_mb_v1_2_f9\hal_eeprom.c"
 235  0004  0700     R  	mov a,_eepromDeviceAddrCpyRead_2[0]
 235  0005  2000     R  	call _eeprom_read
 235  0006  0080     E  	mov ra,a
 235  0007  0F00     E  	mov a,low (offset _intF+29)
 235  0008  0300     R  	add a,_eepromDeviceAddrCpyRead_2[0]
 235  0009  0083        	mov mp,a
 235  000A  0F00     E  	mov a,high (offset _intF+29)
 235  000B  1F04        	clr sbp
 235  000C  1384        	adcm a,sbp
 235  000D  0700     E  	mov a,ra
 235  000E  0082        	mov ir,a
 234  000F              #line 234 "c:\users\user\documents\htk_project\qbell_doorbell_mb_v1_2_f9\hal_eeprom.c"
 234  000F  1480     R  	inc _eepromDeviceAddrCpyRead_2[0]
 234  0010  1780     R  	sdz _eepromDeviceAddrCpyRead_2[1]
 234  0011  2800     R  	jmp _L31
 236  0012              #line 236 "c:\users\user\documents\htk_project\qbell_doorbell_mb_v1_2_f9\hal_eeprom.c"
 236  0012  0F00     R  	mov a,low offset _LC0
 236  0013  0080     E  	mov _uart_printf_2[0],a
"File: hal_eeprom.c  Assembler  Version HGASM0202      Page 9

 236  0014  0F00     R  	mov a,high offset _LC0
 236  0015  0080     E  	mov _uart_printf_2[1],a
 236  0016  2000     E  	call _uart_printf
 236  0017  0003        	ret
 236  0018              _eepromDeviceAddrCpyRead endp
 236  0018              #line 236 "c:\users\user\documents\htk_project\qbell_doorbell_mb_v1_2_f9\hal_eeprom.c"
 236  0018              #pragma debug scope 1 1
 236  0013              @crom	.section 'crom'
 236  0013              _LC1:
 236  0013              	db 042h,06fh,06fh,074h,069h,06eh,067h,020h,066h,06fh
 236  0018              	db 072h,020h,046h,069h,072h,073h,074h,020h,074h,069h
 236  001D              	db 06dh,065h,0ah,00h
 236  001F              @crom	.section 'crom'
 236  001F              _LC2:
 236  001F              	db 044h,065h,076h,069h,063h,065h,020h,041h,064h,064h
 236  0024              	db 072h,065h,073h,073h,020h,043h,06fh,070h,069h,065h
 236  0029              	db 064h,0ah,00h
 236  002B              @crom	.section 'crom'
 236  002B              _LC3:
 236  002B              	db 054h,068h,069h,073h,020h,044h,065h,076h,069h,063h
 236  0030              	db 065h,020h,069h,073h,020h,061h,06ch,072h,065h,061h
 236  0035              	db 064h,079h,020h,0ah,00h
 236  0037              @crom	.section 'crom'
 236  0037              _LC4:
 236  0037              	db 041h,064h,064h,072h,065h,073h,073h,020h,069h,073h
 236  003C              	db 020h,04dh,061h,074h,063h,068h,069h,06eh,067h,0ah
 236  0041              	db 00h
 236  0042              @crom	.section 'crom'
 236  0042              _LC5:
 236  0042              	db 041h,064h,064h,072h,065h,073h,073h,020h,069h,073h
 236  0047              	db 020h,06eh,06fh,074h,020h,04dh,061h,074h,063h,068h
 236  004C              	db 069h,06eh,067h,0ah,00h
 236  004E              public _eepromDeviceAddrCpyCheck
 236  004E              #pragma debug scope 14 1
 173  004E              #line 173 "c:\users\user\documents\htk_project\qbell_doorbell_mb_v1_2_f9\hal_eeprom.c"
 173  0000              _eepromDeviceAddrCpyCheck .section 'code'
 173  0000              _eepromDeviceAddrCpyCheck proc
 194  0000              #line 194 "c:\users\user\documents\htk_project\qbell_doorbell_mb_v1_2_f9\hal_eeprom.c"
 194  0000  0700     E  	mov a,_intF[13]
 194  0001  0A31        	sub a,49
 194  0002  390A        	snz z
 194  0003  2800     R  	jmp _L33
 194  0004              #pragma debug scope 15 14
 194  0004              ;begin block, line: 194.-1
 196  0004              #line 196 "c:\users\user\documents\htk_project\qbell_doorbell_mb_v1_2_f9\hal_eeprom.c"
 196  0004  0F00     R  	mov a,low offset _LC1
 196  0005  0080     E  	mov _uart_printf_2[0],a
 196  0006  0F00     R  	mov a,high offset _LC1
 196  0007  0080     E  	mov _uart_printf_2[1],a
 196  0008  2000     E  	call _uart_printf
 198  0009              #line 198 "c:\users\user\documents\htk_project\qbell_doorbell_mb_v1_2_f9\hal_eeprom.c"
 198  0009  0F30        	mov a,48
 198  000A  0080     R  	mov _eeprom_write_2[0],a
 198  000B  0F00        	mov a,0
 198  000C  2000     R  	call _eeprom_write
 199  000D              #line 199 "c:\users\user\documents\htk_project\qbell_doorbell_mb_v1_2_f9\hal_eeprom.c"
 199  000D  0F01        	mov a,1
 199  000E  0080     E  	mov _delay_2[0],a
 199  000F  1F00     E  	clr _delay_2[1]
 199  0010  2000     E  	call _delay
"File: hal_eeprom.c  Assembler  Version HGASM0202      Page 10

 200  0011              #line 200 "c:\users\user\documents\htk_project\qbell_doorbell_mb_v1_2_f9\hal_eeprom.c"
 200  0011  2000     R  	call _eepromDeviceAddrRead
 201  0012              #line 201 "c:\users\user\documents\htk_project\qbell_doorbell_mb_v1_2_f9\hal_eeprom.c"
 201  0012  0F01        	mov a,1
 201  0013  0080     E  	mov _delay_2[0],a
 201  0014  1F00     E  	clr _delay_2[1]
 201  0015  2000     E  	call _delay
 202  0016              #line 202 "c:\users\user\documents\htk_project\qbell_doorbell_mb_v1_2_f9\hal_eeprom.c"
 202  0016  0F08        	mov a,8
 202  0017  0080     R  	mov _eeprom_write_2[0],a
 202  0018  0F04        	mov a,4
 202  0019  2000     R  	call _eeprom_write
 203  001A              #line 203 "c:\users\user\documents\htk_project\qbell_doorbell_mb_v1_2_f9\hal_eeprom.c"
 203  001A  0F01        	mov a,1
 203  001B  0080     E  	mov _delay_2[0],a
 203  001C  1F00     E  	clr _delay_2[1]
 203  001D  2000     E  	call _delay
 206  001E              #line 206 "c:\users\user\documents\htk_project\qbell_doorbell_mb_v1_2_f9\hal_eeprom.c"
 206  001E  0F00     R  	mov a,low offset _LC2
 206  001F  0080     E  	mov _uart_printf_2[0],a
 206  0020  0F00     R  	mov a,high offset _LC2
 206  0021  0080     E  	mov _uart_printf_2[1],a
 206  0022  2000     E  	call _uart_printf
 207  0023              #line 207 "c:\users\user\documents\htk_project\qbell_doorbell_mb_v1_2_f9\hal_eeprom.c"
 207  0023  0F01        	mov a,1
 207  0024  0080     E  	mov _delay_2[0],a
 207  0025  1F00     E  	clr _delay_2[1]
 207  0026  2000     E  	call _delay
 208  0027              #line 208 "c:\users\user\documents\htk_project\qbell_doorbell_mb_v1_2_f9\hal_eeprom.c"
 208  0027  2000     R  	call _eepromDeviceAddrCpyRead
 208  0028  2800     R  	jmp _L36
 208  0029              _L33:
 208  0029              #pragma debug scope 14 1
 213  0029              #line 213 "c:\users\user\documents\htk_project\qbell_doorbell_mb_v1_2_f9\hal_eeprom.c"
 213  0029  0F00     R  	mov a,low offset _LC3
 213  002A  0080     E  	mov _uart_printf_2[0],a
 213  002B  0F00     R  	mov a,high offset _LC3
 213  002C  0080     E  	mov _uart_printf_2[1],a
 213  002D  2000     E  	call _uart_printf
 214  002E              #line 214 "c:\users\user\documents\htk_project\qbell_doorbell_mb_v1_2_f9\hal_eeprom.c"
 214  002E  2000     R  	call _eepromDeviceAddrCpyRead
 215  002F              #line 215 "c:\users\user\documents\htk_project\qbell_doorbell_mb_v1_2_f9\hal_eeprom.c"
 215  002F  0F01        	mov a,1
 215  0030  0080     E  	mov _delay_2[0],a
 215  0031  1F00     E  	clr _delay_2[1]
 215  0032  2000     E  	call _delay
 216  0033              #line 216 "c:\users\user\documents\htk_project\qbell_doorbell_mb_v1_2_f9\hal_eeprom.c"
 216  0033  0F05        	mov a,5
 216  0034  0080     E  	mov _memcmp_2[4],a
 216  0035  1F00     E  	clr _memcmp_2[5]
 216  0036  0F00     E  	mov a,low (offset _intF+34)
 216  0037  0080     E  	mov _memcmp_2[2],a
 216  0038  0F00     E  	mov a,high (offset _intF+34)
 216  0039  0080     E  	mov _memcmp_2[3],a
 216  003A  0F00     E  	mov a,low (offset _intF+13)
 216  003B  0080     E  	mov _memcmp_2[0],a
 216  003C  0F00     E  	mov a,high (offset _intF+13)
 216  003D  0080     E  	mov _memcmp_2[1],a
 216  003E  2000     E  	call _memcmp
 216  003F  0700     E  	mov a,ra
"File: hal_eeprom.c  Assembler  Version HGASM0202      Page 11

 216  0040  0500     E  	or a,rb
 216  0041  390A        	snz z
 216  0042  2800     R  	jmp _L35
 218  0043              #line 218 "c:\users\user\documents\htk_project\qbell_doorbell_mb_v1_2_f9\hal_eeprom.c"
 218  0043  0F00     R  	mov a,low offset _LC4
 218  0044  0080     E  	mov _uart_printf_2[0],a
 218  0045  0F00     R  	mov a,high offset _LC4
 218  0046  0080     E  	mov _uart_printf_2[1],a
 218  0047  2000     E  	call _uart_printf
 218  0048              _L36:
 219  0048              #line 219 "c:\users\user\documents\htk_project\qbell_doorbell_mb_v1_2_f9\hal_eeprom.c"
 219  0048  1F00     E  	clr _intF[39]
 219  0049  2800     R  	jmp _L32
 219  004A              _L35:
 223  004A              #line 223 "c:\users\user\documents\htk_project\qbell_doorbell_mb_v1_2_f9\hal_eeprom.c"
 223  004A  0F00     R  	mov a,low offset _LC5
 223  004B  0080     E  	mov _uart_printf_2[0],a
 223  004C  0F00     R  	mov a,high offset _LC5
 223  004D  0080     E  	mov _uart_printf_2[1],a
 223  004E  2000     E  	call _uart_printf
 224  004F              #line 224 "c:\users\user\documents\htk_project\qbell_doorbell_mb_v1_2_f9\hal_eeprom.c"
 224  004F  0F01        	mov a,1
 224  0050  0080     E  	mov _intF[39],a
 224  0051              _L32:
 224  0051  0003        	ret
 224  0052              _eepromDeviceAddrCpyCheck endp
 224  0052              #line 224 "c:\users\user\documents\htk_project\qbell_doorbell_mb_v1_2_f9\hal_eeprom.c"
 224  0052              #pragma debug scope 1 1
 224  0052              #pragma debug variable 8 1 ___mp1l "__mp1l" 1
 224  0052              #pragma debug variable 8 1 ___mp1h "__mp1h" 1
 224  0052              #pragma debug struct_end
 224  0052              #pragma debug struct_end
 224  0052              #pragma debug union_end
 224  0052              #pragma debug union_end
 224  0052              #pragma debug variable 43 1 ___intc0 "__intc0" 1
 224  0052              #pragma debug struct_end
 224  0052              #pragma debug struct_end
 224  0052              #pragma debug union_end
 224  0052              #pragma debug union_end
 224  0052              #pragma debug variable 45 1 ___eea "__eea" 1
 224  0052              #pragma debug variable 8 1 ___eed "__eed" 1
 224  0052              #pragma debug struct_end
 224  0052              #pragma debug struct_end
 224  0052              #pragma debug union_end
 224  0052              #pragma debug union_end
 224  0052              #pragma debug variable 47 1 ___eec "__eec" 1
 224  0052              #pragma debug variable 8 1 ___iar1 "__iar1" 1
 224  0052              
 224  0052              ; output external variables
 224  0052              extern _intF:byte
 224  0052              extern _delay_2:byte
 224  0052              extern _delay:near
 224  0052              extern _uart_printf_2:byte
 224  0052              extern _uart_printf:near
 224  0052              extern _memcmp_2:byte
 224  0052              extern _memcmp:near
 224  0052              
 224  0052              ; 
 224  0052              ; Generated by holtek-gcc v3.19, Tue Oct 18 12:10:04 2022
 224  0052              ; Rebuild 718
"File: hal_eeprom.c  Assembler  Version HGASM0202      Page 12

 224  0052              ; end of file


        0 Errors, 0