"File: hal_adc.c     Assembler  Version HGASM0202      Page 1


   1  0000              ; Generated by holtek-gcc v3.19, Tue Oct 18 12:09:57 2022
   2  0000              ; 
   3  0000              ; Configuration:
   4  0000              ;       with long instruction
   5  0000              ;       Single ROM, Multi-RAM
   6  0000              ;       bits_per_rom_unit:16
   7  0000              ;       with mp1
   8  0000              ;       with tbhp, address(0x9)
   9  0000              ;          Use tabrd-const
  10  0000              ;       
  11  0000              ; SFR address of long-instruction arch:
  12  0000              ;    mp0 = -1,1,0
  13  0000              ;    mp1 = 4,3,2
  14  0000              ;    mp2 = 14,13,12
  15  0000              ;    tbp = 9,7,8
  16  0000              ;    acc = 5
  17  0000              ;    pcl = 6
  18  0000              ;    status = 10
  19  0000              ;    bp = 11
  20  0000              ;    intc = 17
  21  0000              ;       
  22  0000              ;       
  23  0000              ; use 'tabrdc' instead of 'tabrd'
  24  0000              ;       
  25  0000              
  26  0000              #pragma translator "holtek-gcc 4.6.4" "3.19" "build 20130711"
  27  0000              ; Rebuild 718
  28  0000              
  29  0000              ir equ [2]
  30  0000              mp equ [3]
  31  0000              sbp equ [4]
  32  0000              acc equ [5]
  33  0000              bp equ [11]
  34  0000              tblp equ [7]
  35  0000              tbhp equ [9]
  36  0000              status equ [10]
  37  0000              c equ [10].0
  38  0000              ac equ [10].1
  39  0000              z equ [10].2
  40  0000              ov equ [10].3
  41  0000              cz equ [10].6
  42  0000              sc equ [10].7
  43  0000              intc equ [17]
  44  0000              
  45  0000              extern ra:byte
  46  0000              extern rb:byte
  47  0000              extern rc:byte
  48  0000              extern rd:byte
  49  0000              extern re:byte
  50  0000              extern rf:byte
  51  0000              extern rg:byte
  52  0000              extern rh:byte
  53  0000              extern _Crom2Prom:near
  54  0000              extern _Crom2PromNext:near
  55  0000              
  56  0000              RAMBANK 0 @BITDATASEC, @BITDATASEC1
  57  0000              @HCCINIT	.section 'data'
  58  0000              @HCCINIT0	.section 'data'
  59  0000              @BITDATASEC	 .section 'data'
"File: hal_adc.ASM   Assembler  Version HGASM0202      Page 2

  60  0000              @BITDATASEC1	 .section 'data'
  61  0000              
  62  0000              #pragma debug scope 1 1
  63  0000              	extern __DELAY3:near
  64  0000              	extern __DELAYX3:near
  65  0000              	extern __DELAYX6:near
  66  0000              	extern __DELAYY5:near
  67  0000              	extern __DELAYY3:near
  68  0000              	extern _builtin_holtek_delay_2:byte
  69  0000              ___sadc1 equ [35]
  70  0000              ___sadc0 equ [34]
  71  0000              ___pbs0 equ [93]
  72  0000              ___pas1 equ [92]
  73  0000              ___pbs1 equ [94]
  74  0000              ___pds0 equ [97]
  75  0000              public _adc_selectChannel
  76  0000              #pragma debug scope 2 1

  46  0000              #line 46 "c:\users\user\documents\htk_project\qbell_doorbell_mb_v1_2_f9\hal_adc.c"
  46  0000              _adc_selectChannel .section 'code'
  46  0000              _adc_selectChannel proc
  46  0000  00              local _adc_selectChannel_2 db 1 dup(?)	; 0,1
  46  0000  0080     R  	mov _adc_selectChannel_2[0],a
  46  0001              #pragma debug variable 8 2 _adc_selectChannel_2+0 "ADC_Channel"
  47  0001              #line 47 "c:\users\user\documents\htk_project\qbell_doorbell_mb_v1_2_f9\hal_adc.c"
  47  0001  0F0F        	mov a,15
  47  0002  06A3        	andm a,[35]
  49  0003              #line 49 "c:\users\user\documents\htk_project\qbell_doorbell_mb_v1_2_f9\hal_adc.c"
  49  0003  0F0A        	mov a,10
  49  0004  0200     R  	sub a,_adc_selectChannel_2[0]
  49  0005  380A        	snz c
  49  0006  2800     R  	jmp _L2
  51  0007              #line 51 "c:\users\user\documents\htk_project\qbell_doorbell_mb_v1_2_f9\hal_adc.c"
  51  0007  0FF0        	mov a,240
  51  0008  06A2        	andm a,[34]
  53  0009              #line 53 "c:\users\user\documents\htk_project\qbell_doorbell_mb_v1_2_f9\hal_adc.c"
  53  0009  0700     R  	mov a,_adc_selectChannel_2[0]
  53  000A  05A2        	orm a,[34]
  55  000B              #line 55 "c:\users\user\documents\htk_project\qbell_doorbell_mb_v1_2_f9\hal_adc.c"
  55  000B  0700     R  	mov a,_adc_selectChannel_2[0]
  55  000C  0A01        	sub a,1
  55  000D  3D0A        	sz z
  55  000E  2800     R  	jmp _L4
  55  000F  0A01        	sub a,(2)-(1)
  55  0010  3D0A        	sz z
  55  0011  2800     R  	jmp _L5
  55  0012  0700     R  	mov a,_adc_selectChannel_2[0]
  55  0013  0A03        	sub a,3
  55  0014  3D0A        	sz z
  55  0015  2800     R  	jmp _L6
  55  0016  0A01        	sub a,(4)-(3)
  55  0017  3D0A        	sz z
  55  0018  2800     R  	jmp _L7
  55  0019  0700     R  	mov a,_adc_selectChannel_2[0]
  55  001A  0A05        	sub a,5
  55  001B  3D0A        	sz z
  55  001C  2800     R  	jmp _L8
  55  001D  0A01        	sub a,(6)-(5)
  55  001E  3D0A        	sz z
  55  001F  2800     R  	jmp _L9
"File: hal_adc.c     Assembler  Version HGASM0202      Page 3

  55  0020  0700     R  	mov a,_adc_selectChannel_2[0]
  55  0021  0A07        	sub a,7
  55  0022  3D0A        	sz z
  55  0023  2800     R  	jmp _L10
  55  0024  0A01        	sub a,(8)-(7)
  55  0025  3D0A        	sz z
  55  0026  2800     R  	jmp _L11
  55  0027  0700     R  	mov a,_adc_selectChannel_2[0]
  55  0028  0A09        	sub a,9
  55  0029  3D0A        	sz z
  55  002A  2800     R  	jmp _L12
  55  002B  0A01        	sub a,(10)-(9)
  55  002C  3D0A        	sz z
  55  002D  2800     R  	jmp _L13
  58  002E              #line 58 "c:\users\user\documents\htk_project\qbell_doorbell_mb_v1_2_f9\hal_adc.c"
  58  002E  30DD        	set [93].1
  58  002F  345D        	clr [93].0
  59  0030              #line 59 "c:\users\user\documents\htk_project\qbell_doorbell_mb_v1_2_f9\hal_adc.c"
  59  0030  2800     R  	jmp _L1
  59  0031              _L4:
  62  0031              #line 62 "c:\users\user\documents\htk_project\qbell_doorbell_mb_v1_2_f9\hal_adc.c"
  62  0031  31DD        	set [93].3
  62  0032  355D        	clr [93].2
  63  0033              #line 63 "c:\users\user\documents\htk_project\qbell_doorbell_mb_v1_2_f9\hal_adc.c"
  63  0033  2800     R  	jmp _L1
  63  0034              _L5:
  66  0034              #line 66 "c:\users\user\documents\htk_project\qbell_doorbell_mb_v1_2_f9\hal_adc.c"
  66  0034  32DD        	set [93].5
  66  0035  325D        	set [93].4
  67  0036              #line 67 "c:\users\user\documents\htk_project\qbell_doorbell_mb_v1_2_f9\hal_adc.c"
  67  0036  2800     R  	jmp _L1
  67  0037              _L6:
  70  0037              #line 70 "c:\users\user\documents\htk_project\qbell_doorbell_mb_v1_2_f9\hal_adc.c"
  70  0037  30DC        	set [92].1
  70  0038  305C        	set [92].0
  71  0039              #line 71 "c:\users\user\documents\htk_project\qbell_doorbell_mb_v1_2_f9\hal_adc.c"
  71  0039  2800     R  	jmp _L1
  71  003A              _L7:
  74  003A              #line 74 "c:\users\user\documents\htk_project\qbell_doorbell_mb_v1_2_f9\hal_adc.c"
  74  003A  31DC        	set [92].3
  74  003B  355C        	clr [92].2
  75  003C              #line 75 "c:\users\user\documents\htk_project\qbell_doorbell_mb_v1_2_f9\hal_adc.c"
  75  003C  2800     R  	jmp _L1
  75  003D              _L8:
  78  003D              #line 78 "c:\users\user\documents\htk_project\qbell_doorbell_mb_v1_2_f9\hal_adc.c"
  78  003D  32DC        	set [92].5
  78  003E  365C        	clr [92].4
  79  003F              #line 79 "c:\users\user\documents\htk_project\qbell_doorbell_mb_v1_2_f9\hal_adc.c"
  79  003F  2800     R  	jmp _L1
  79  0040              _L9:
  82  0040              #line 82 "c:\users\user\documents\htk_project\qbell_doorbell_mb_v1_2_f9\hal_adc.c"
  82  0040  33DC        	set [92].7
  82  0041  335C        	set [92].6
  83  0042              #line 83 "c:\users\user\documents\htk_project\qbell_doorbell_mb_v1_2_f9\hal_adc.c"
  83  0042  2800     R  	jmp _L1
  83  0043              _L10:
  86  0043              #line 86 "c:\users\user\documents\htk_project\qbell_doorbell_mb_v1_2_f9\hal_adc.c"
  86  0043  33DD        	set [93].7
  86  0044  335D        	set [93].6
  87  0045              #line 87 "c:\users\user\documents\htk_project\qbell_doorbell_mb_v1_2_f9\hal_adc.c"
"File: hal_adc.c     Assembler  Version HGASM0202      Page 4

  87  0045  2800     R  	jmp _L1
  87  0046              _L11:
  90  0046              #line 90 "c:\users\user\documents\htk_project\qbell_doorbell_mb_v1_2_f9\hal_adc.c"
  90  0046  30DE        	set [94].1
  90  0047  305E        	set [94].0
  91  0048              #line 91 "c:\users\user\documents\htk_project\qbell_doorbell_mb_v1_2_f9\hal_adc.c"
  91  0048  2800     R  	jmp _L1
  91  0049              _L12:
  94  0049              #line 94 "c:\users\user\documents\htk_project\qbell_doorbell_mb_v1_2_f9\hal_adc.c"
  94  0049  33E1        	set [97].7
  94  004A  3361        	set [97].6
  95  004B              #line 95 "c:\users\user\documents\htk_project\qbell_doorbell_mb_v1_2_f9\hal_adc.c"
  95  004B  2800     R  	jmp _L1
  95  004C              _L13:
  98  004C              #line 98 "c:\users\user\documents\htk_project\qbell_doorbell_mb_v1_2_f9\hal_adc.c"
  98  004C  32E1        	set [97].5
  98  004D  3261        	set [97].4
  99  004E              #line 99 "c:\users\user\documents\htk_project\qbell_doorbell_mb_v1_2_f9\hal_adc.c"
  99  004E  2800     R  	jmp _L1
  99  004F              _L2:
 112  004F              #line 112 "c:\users\user\documents\htk_project\qbell_doorbell_mb_v1_2_f9\hal_adc.c"
 112  004F  0700     R  	mov a,_adc_selectChannel_2[0]
 112  0050  05A3        	orm a,[35]
 112  0051              _L1:
 112  0051  0003        	ret
 112  0052              _adc_selectChannel endp
 112  0052              #line 112 "c:\users\user\documents\htk_project\qbell_doorbell_mb_v1_2_f9\hal_adc.c"
 112  0052              #pragma debug scope 1 1
 112  0052              ___vbgrc equ [74]
 112  0052              ___sadoh equ [33]
 112  0052              ___sadol equ [32]
 112  0052              public _adc_getValue
 112  0052              #pragma debug scope 3 1
 128  0052              #line 128 "c:\users\user\documents\htk_project\qbell_doorbell_mb_v1_2_f9\hal_adc.c"
 128  0000              _adc_getValue .section 'code'
 128  0000              _adc_getValue proc
 129  0000              #line 129 "c:\users\user\documents\htk_project\qbell_doorbell_mb_v1_2_f9\hal_adc.c"
 129  0000  304A        	set [74].0
 131  0001              #line 131 "c:\users\user\documents\htk_project\qbell_doorbell_mb_v1_2_f9\hal_adc.c"
 131  0001  37A2        	clr [34].7
 131  0002  33A2        	set [34].7
 131  0003  37A2        	clr [34].7
 131  0004              _L18:
 133  0004              #line 133 "c:\users\user\documents\htk_project\qbell_doorbell_mb_v1_2_f9\hal_adc.c"
 133  0004  3F22        	sz [34].6
 133  0005  2800     R  	jmp _L18
 137  0006              #line 137 "c:\users\user\documents\htk_project\qbell_doorbell_mb_v1_2_f9\hal_adc.c"
 137  0006  0721        	mov a,[33]
 137  0007  0080     E  	mov rd,a
 137  0008  0720        	mov a,[32]
 137  0009  0080     E  	mov ra,a
 144  000A              #line 144 "c:\users\user\documents\htk_project\qbell_doorbell_mb_v1_2_f9\hal_adc.c"
 144  000A  344A        	clr [74].0
 137  000B              #line 137 "c:\users\user\documents\htk_project\qbell_doorbell_mb_v1_2_f9\hal_adc.c"
 137  000B  0700     E  	mov a,rd
 137  000C  0080     E  	mov rc,a
 137  000D  1F00     E  	clr rb
 146  000E              #line 146 "c:\users\user\documents\htk_project\qbell_doorbell_mb_v1_2_f9\hal_adc.c"
 146  000E  0700     E  	mov a,rc
 146  000F  0080     E  	mov re,a
"File: hal_adc.c     Assembler  Version HGASM0202      Page 5

 146  0010  0700     E  	mov a,ra
 146  0011  0500     E  	or a,rb
 146  0012  0080     E  	mov rd,a
 146  0013  0700     E  	mov a,rd
 146  0014  0080     E  	mov ra,a
 146  0015  0700     E  	mov a,re
 146  0016  0080     E  	mov rb,a
 146  0017  0003        	ret
 146  0018              _adc_getValue endp
 146  0018              #line 146 "c:\users\user\documents\htk_project\qbell_doorbell_mb_v1_2_f9\hal_adc.c"
 146  0018              #pragma debug scope 1 1
 146  0018              ___mfi2 equ [78]
 146  0018              ___lvdc equ [24]
 146  0018              public _lvd_init
 146  0018              #pragma debug scope 4 1
 149  0018              #line 149 "c:\users\user\documents\htk_project\qbell_doorbell_mb_v1_2_f9\hal_adc.c"
 149  0000              _lvd_init .section 'code'
 149  0000              _lvd_init proc
 150  0000              #line 150 "c:\users\user\documents\htk_project\qbell_doorbell_mb_v1_2_f9\hal_adc.c"
 150  0000  304E        	set [78].0
 151  0001              #line 151 "c:\users\user\documents\htk_project\qbell_doorbell_mb_v1_2_f9\hal_adc.c"
 151  0001  3218        	set [24].4
 152  0002              #line 152 "c:\users\user\documents\htk_project\qbell_doorbell_mb_v1_2_f9\hal_adc.c"
 152  0002  3118        	set [24].2
 152  0003  3498        	clr [24].1
 152  0004  3018        	set [24].0
 152  0005  0003        	ret
 152  0006              _lvd_init endp
 152  0006              #line 152 "c:\users\user\documents\htk_project\qbell_doorbell_mb_v1_2_f9\hal_adc.c"
 152  0006              #pragma debug scope 1 1
 152  0006              ___sadc2 equ [36]
 152  0006              public _adc_init
 152  0006              #pragma debug scope 5 1
  21  0006              #line 21 "c:\users\user\documents\htk_project\qbell_doorbell_mb_v1_2_f9\hal_adc.c"
  21  0000              _adc_init .section 'code'
  21  0000              _adc_init proc
  22  0000              #line 22 "c:\users\user\documents\htk_project\qbell_doorbell_mb_v1_2_f9\hal_adc.c"
  22  0000  3523        	clr [35].2
  22  0001  34A3        	clr [35].1
  22  0002  3423        	clr [35].0
  23  0003              #line 23 "c:\users\user\documents\htk_project\qbell_doorbell_mb_v1_2_f9\hal_adc.c"
  23  0003  32A2        	set [34].5
  24  0004              #line 24 "c:\users\user\documents\htk_project\qbell_doorbell_mb_v1_2_f9\hal_adc.c"
  24  0004  37A3        	clr [35].7
  24  0005  3723        	clr [35].6
  24  0006  36A3        	clr [35].5
  24  0007  3623        	clr [35].4
  25  0008              #line 25 "c:\users\user\documents\htk_project\qbell_doorbell_mb_v1_2_f9\hal_adc.c"
  25  0008  3222        	set [34].4
  26  0009              #line 26 "c:\users\user\documents\htk_project\qbell_doorbell_mb_v1_2_f9\hal_adc.c"
  26  0009  35A4        	clr [36].3
  26  000A  3524        	clr [36].2
  29  000B              #line 29 "c:\users\user\documents\htk_project\qbell_doorbell_mb_v1_2_f9\hal_adc.c"
  29  000B  0F02        	mov a,2
  29  000C  2000     R  	call _adc_selectChannel
  31  000D              #line 31 "c:\users\user\documents\htk_project\qbell_doorbell_mb_v1_2_f9\hal_adc.c"
  31  000D  2000     R  	call _lvd_init
  32  000E              #line 32 "c:\users\user\documents\htk_project\qbell_doorbell_mb_v1_2_f9\hal_adc.c"
  32  000E  0F01        	mov a,1
  32  000F  0080     E  	mov _delay_2[0],a
"File: hal_adc.c     Assembler  Version HGASM0202      Page 6

  32  0010  1F00     E  	clr _delay_2[1]
  32  0011  2000     E  	call _delay
  32  0012  0003        	ret
  32  0013              _adc_init endp
  32  0013              #line 32 "c:\users\user\documents\htk_project\qbell_doorbell_mb_v1_2_f9\hal_adc.c"
  32  0013              #pragma debug scope 1 1
  32  0013              public _lvd_read
  32  0013              #pragma debug scope 6 1
 156  0013              #line 156 "c:\users\user\documents\htk_project\qbell_doorbell_mb_v1_2_f9\hal_adc.c"
 156  0000              _lvd_read .section 'code'
 156  0000              _lvd_read proc
 157  0000              #line 157 "c:\users\user\documents\htk_project\qbell_doorbell_mb_v1_2_f9\hal_adc.c"
 157  0000  3A98        	snz [24].5
 157  0001  2800     R  	jmp _L22
 158  0002              #line 158 "c:\users\user\documents\htk_project\qbell_doorbell_mb_v1_2_f9\hal_adc.c"
 158  0002  0F01        	mov a,1
 158  0003  0080     E  	mov _intF[40],a
 158  0004  2800     R  	jmp _L23
 158  0005              _L22:
 160  0005              #line 160 "c:\users\user\documents\htk_project\qbell_doorbell_mb_v1_2_f9\hal_adc.c"
 160  0005  1F00     E  	clr _intF[40]
 160  0006              _L23:
 162  0006              #line 162 "c:\users\user\documents\htk_project\qbell_doorbell_mb_v1_2_f9\hal_adc.c"
 162  0006  0700     E  	mov a,_intF[40]
 162  0007  0003        	ret
 162  0008              _lvd_read endp
 162  0008              #line 162 "c:\users\user\documents\htk_project\qbell_doorbell_mb_v1_2_f9\hal_adc.c"
 162  0008              #pragma debug scope 1 1
 162  0000              @crom	.section 'crom'
 162  0000              _LC0:
 162  0000              	db 033h,076h,033h,020h,04ch,056h,044h,020h,04dh,06fh
 162  0005              	db 064h,065h,020h,0ah,00h
 162  0008              @crom	.section 'crom'
 162  0008              _LC1:
 162  0008              	db 033h,056h,030h,020h,04ch,056h,044h,020h,04dh,06fh
 162  000D              	db 064h,065h,0ah,00h
 162  000F              @crom	.section 'crom'
 162  000F              _LC2:
 162  000F              	db 032h,056h,037h,020h,04ch,056h,044h,020h,04dh,06fh
 162  0014              	db 064h,065h,0ah,00h
 162  0016              public _lvd_mode_select
 162  0016              #pragma debug scope 7 1
 165  0016              #line 165 "c:\users\user\documents\htk_project\qbell_doorbell_mb_v1_2_f9\hal_adc.c"
 165  0000              _lvd_mode_select .section 'code'
 165  0000              _lvd_mode_select proc
 165  0000  00              local _lvd_mode_select_2 db 1 dup(?)	; 0,1
 165  0000  0080     R  	mov _lvd_mode_select_2[0],a
 165  0001              #pragma debug variable 8 7 _lvd_mode_select_2+0 "mode"
 166  0001              #line 166 "c:\users\user\documents\htk_project\qbell_doorbell_mb_v1_2_f9\hal_adc.c"
 166  0001  304E        	set [78].0
 167  0002              #line 167 "c:\users\user\documents\htk_project\qbell_doorbell_mb_v1_2_f9\hal_adc.c"
 167  0002  3218        	set [24].4
 168  0003              #line 168 "c:\users\user\documents\htk_project\qbell_doorbell_mb_v1_2_f9\hal_adc.c"
 168  0003  0700     R  	mov a,_lvd_mode_select_2[0]
 168  0004  0A01        	sub a,1
 168  0005  3D0A        	sz z
 168  0006  2800     R  	jmp _L26
 168  0007  0A01        	sub a,(2)-(1)
 168  0008  3D0A        	sz z
 168  0009  2800     R  	jmp _L27
"File: hal_adc.c     Assembler  Version HGASM0202      Page 7

 168  000A              #line 168 "c:\users\user\documents\htk_project\qbell_doorbell_mb_v1_2_f9\hal_adc.c"
 168  000A  0700     R  	mov a,_lvd_mode_select_2[0]
 168  000B  0A03        	sub a,3
 168  000C  390A        	snz z
 168  000D  2800     R  	jmp _L24
 181  000E              #line 181 "c:\users\user\documents\htk_project\qbell_doorbell_mb_v1_2_f9\hal_adc.c"
 181  000E  3518        	clr [24].2
 181  000F  3098        	set [24].1
 181  0010  3018        	set [24].0
 182  0011              #line 182 "c:\users\user\documents\htk_project\qbell_doorbell_mb_v1_2_f9\hal_adc.c"
 182  0011  0F00     R  	mov a,low offset _LC2
 182  0012  0080     E  	mov _uart_printf_2[0],a
 182  0013  0F00     R  	mov a,high offset _LC2
 182  0014  0080     E  	mov _uart_printf_2[1],a
 182  0015  2800     R  	jmp _L29
 182  0016              _L26:
 171  0016              #line 171 "c:\users\user\documents\htk_project\qbell_doorbell_mb_v1_2_f9\hal_adc.c"
 171  0016  3118        	set [24].2
 171  0017  3498        	clr [24].1
 171  0018  3018        	set [24].0
 172  0019              #line 172 "c:\users\user\documents\htk_project\qbell_doorbell_mb_v1_2_f9\hal_adc.c"
 172  0019  0F00     R  	mov a,low offset _LC0
 172  001A  0080     E  	mov _uart_printf_2[0],a
 172  001B  0F00     R  	mov a,high offset _LC0
 172  001C  0080     E  	mov _uart_printf_2[1],a
 172  001D  2800     R  	jmp _L29
 172  001E              _L27:
 176  001E              #line 176 "c:\users\user\documents\htk_project\qbell_doorbell_mb_v1_2_f9\hal_adc.c"
 176  001E  3118        	set [24].2
 176  001F  3498        	clr [24].1
 176  0020  3418        	clr [24].0
 177  0021              #line 177 "c:\users\user\documents\htk_project\qbell_doorbell_mb_v1_2_f9\hal_adc.c"
 177  0021  0F00     R  	mov a,low offset _LC1
 177  0022  0080     E  	mov _uart_printf_2[0],a
 177  0023  0F00     R  	mov a,high offset _LC1
 177  0024  0080     E  	mov _uart_printf_2[1],a
 177  0025              _L29:
 182  0025              #line 182 "c:\users\user\documents\htk_project\qbell_doorbell_mb_v1_2_f9\hal_adc.c"
 182  0025  2000     E  	call _uart_printf
 182  0026              _L24:
 182  0026  0003        	ret
 182  0027              _lvd_mode_select endp
 182  0027              #line 182 "c:\users\user\documents\htk_project\qbell_doorbell_mb_v1_2_f9\hal_adc.c"
 182  0027              #pragma debug scope 1 1
 182  0027              public _lvd_read_select
 182  0027              #pragma debug scope 8 1
 191  0027              #line 191 "c:\users\user\documents\htk_project\qbell_doorbell_mb_v1_2_f9\hal_adc.c"
 191  0000              _lvd_read_select .section 'code'
 191  0000              _lvd_read_select proc
 191  0000  00              local _lvd_read_select_2 db 1 dup(?)	; 0,1
 191  0000  0080     E  	mov ra,a
 191  0001  0080     R  	mov _lvd_read_select_2[0],a
 191  0002              #pragma debug variable 8 8 _lvd_read_select_2+0 "mode"
 192  0002              #line 192 "c:\users\user\documents\htk_project\qbell_doorbell_mb_v1_2_f9\hal_adc.c"
 192  0002  0700     E  	mov a,ra
 192  0003  0A01        	sub a,1
 192  0004  3D0A        	sz z
 192  0005  2800     R  	jmp _L32
 192  0006  0A01        	sub a,(2)-(1)
 192  0007  3D0A        	sz z
"File: hal_adc.c     Assembler  Version HGASM0202      Page 8

 192  0008  2800     R  	jmp _L33
 192  0009              #line 192 "c:\users\user\documents\htk_project\qbell_doorbell_mb_v1_2_f9\hal_adc.c"
 192  0009  0700     E  	mov a,ra
 192  000A  0A03        	sub a,3
 192  000B  390A        	snz z
 192  000C  2800     R  	jmp _L30
 192  000D  2800     R  	jmp _L38
 192  000E              _L32:
 195  000E              #line 195 "c:\users\user\documents\htk_project\qbell_doorbell_mb_v1_2_f9\hal_adc.c"
 195  000E  3A98        	snz [24].5
 195  000F  2800     R  	jmp _L35
 196  0010              #line 196 "c:\users\user\documents\htk_project\qbell_doorbell_mb_v1_2_f9\hal_adc.c"
 196  0010  0F01        	mov a,1
 196  0011  0080     E  	mov _intF[41],a
 196  0012  2800     R  	jmp _L30
 196  0013              _L35:
 198  0013              #line 198 "c:\users\user\documents\htk_project\qbell_doorbell_mb_v1_2_f9\hal_adc.c"
 198  0013  1F00     E  	clr _intF[41]
 198  0014  2800     R  	jmp _L30
 198  0015              _L33:
 202  0015              #line 202 "c:\users\user\documents\htk_project\qbell_doorbell_mb_v1_2_f9\hal_adc.c"
 202  0015  3A98        	snz [24].5
 202  0016  2800     R  	jmp _L36
 203  0017              #line 203 "c:\users\user\documents\htk_project\qbell_doorbell_mb_v1_2_f9\hal_adc.c"
 203  0017  0F01        	mov a,1
 203  0018  0080     E  	mov _intF[42],a
 203  0019  2800     R  	jmp _L30
 203  001A              _L36:
 205  001A              #line 205 "c:\users\user\documents\htk_project\qbell_doorbell_mb_v1_2_f9\hal_adc.c"
 205  001A  1F00     E  	clr _intF[42]
 205  001B  2800     R  	jmp _L30
 205  001C              _L38:
 209  001C              #line 209 "c:\users\user\documents\htk_project\qbell_doorbell_mb_v1_2_f9\hal_adc.c"
 209  001C  3A98        	snz [24].5
 209  001D  2800     R  	jmp _L37
 210  001E              #line 210 "c:\users\user\documents\htk_project\qbell_doorbell_mb_v1_2_f9\hal_adc.c"
 210  001E  0F01        	mov a,1
 210  001F  0080     E  	mov _intF[43],a
 210  0020  2800     R  	jmp _L30
 210  0021              _L37:
 212  0021              #line 212 "c:\users\user\documents\htk_project\qbell_doorbell_mb_v1_2_f9\hal_adc.c"
 212  0021  1F00     E  	clr _intF[43]
 212  0022              _L30:
 212  0022  0003        	ret
 212  0023              _lvd_read_select endp
 212  0023              #line 212 "c:\users\user\documents\htk_project\qbell_doorbell_mb_v1_2_f9\hal_adc.c"
 212  0023              #pragma debug scope 1 1
 212  0023              #pragma debug struct_end
 212  0023              #pragma debug struct_end
 212  0023              #pragma debug union_end
 212  0023              #pragma debug union_end
 212  0023              #pragma debug variable 43 1 ___lvdc "__lvdc" 1
 212  0023              #pragma debug variable 8 1 ___sadol "__sadol" 1
 212  0023              #pragma debug variable 8 1 ___sadoh "__sadoh" 1
 212  0023              #pragma debug struct_end
 212  0023              #pragma debug struct_end
 212  0023              #pragma debug union_end
 212  0023              #pragma debug union_end
 212  0023              #pragma debug variable 45 1 ___sadc0 "__sadc0" 1
 212  0023              #pragma debug struct_end
"File: hal_adc.c     Assembler  Version HGASM0202      Page 9

 212  0023              #pragma debug struct_end
 212  0023              #pragma debug union_end
 212  0023              #pragma debug union_end
 212  0023              #pragma debug variable 47 1 ___sadc1 "__sadc1" 1
 212  0023              #pragma debug struct_end
 212  0023              #pragma debug struct_end
 212  0023              #pragma debug union_end
 212  0023              #pragma debug union_end
 212  0023              #pragma debug variable 49 1 ___sadc2 "__sadc2" 1
 212  0023              #pragma debug struct_end
 212  0023              #pragma debug struct_end
 212  0023              #pragma debug union_end
 212  0023              #pragma debug union_end
 212  0023              #pragma debug variable 51 1 ___vbgrc "__vbgrc" 1
 212  0023              #pragma debug struct_end
 212  0023              #pragma debug struct_end
 212  0023              #pragma debug union_end
 212  0023              #pragma debug union_end
 212  0023              #pragma debug variable 53 1 ___mfi2 "__mfi2" 1
 212  0023              #pragma debug struct_end
 212  0023              #pragma debug struct_end
 212  0023              #pragma debug union_end
 212  0023              #pragma debug union_end
 212  0023              #pragma debug variable 55 1 ___pas1 "__pas1" 1
 212  0023              #pragma debug struct_end
 212  0023              #pragma debug struct_end
 212  0023              #pragma debug union_end
 212  0023              #pragma debug union_end
 212  0023              #pragma debug variable 57 1 ___pbs0 "__pbs0" 1
 212  0023              #pragma debug struct_end
 212  0023              #pragma debug struct_end
 212  0023              #pragma debug union_end
 212  0023              #pragma debug union_end
 212  0023              #pragma debug variable 59 1 ___pbs1 "__pbs1" 1
 212  0023              #pragma debug struct_end
 212  0023              #pragma debug struct_end
 212  0023              #pragma debug union_end
 212  0023              #pragma debug union_end
 212  0023              #pragma debug variable 61 1 ___pds0 "__pds0" 1
 212  0023              
 212  0023              ; output external variables
 212  0023              extern _intF:byte
 212  0023              extern _delay_2:byte
 212  0023              extern _delay:near
 212  0023              extern _uart_printf_2:byte
 212  0023              extern _uart_printf:near
 212  0023              
 212  0023              ; 
 212  0023              ; Generated by holtek-gcc v3.19, Tue Oct 18 12:09:57 2022
 212  0023              ; Rebuild 718
 212  0023              ; end of file


        0 Errors, 0