"File: main.c        Assembler  Version HGASM0202      Page 1


   1  0000              ; Generated by holtek-gcc v3.19, Tue Oct 18 14:54:57 2022
   2  0000              ; 
   3  0000              ; Configuration:
   4  0000              ;       with long instruction
   5  0000              ;       Single ROM, Multi-RAM
   6  0000              ;       bits_per_rom_unit:16
   7  0000              ;       with mp1
   8  0000              ;       with tbhp, address(0x9)
   9  0000              ;          Use tabrd-const
  10  0000              ;       
  11  0000              ; SFR address of long-instruction arch:
  12  0000              ;    mp0 = -1,1,0
  13  0000              ;    mp1 = 4,3,2
  14  0000              ;    mp2 = 14,13,12
  15  0000              ;    tbp = 9,7,8
  16  0000              ;    acc = 5
  17  0000              ;    pcl = 6
  18  0000              ;    status = 10
  19  0000              ;    bp = 11
  20  0000              ;    intc = 17
  21  0000              ;       
  22  0000              ;       
  23  0000              ; use 'tabrdc' instead of 'tabrd'
  24  0000              ;       
  25  0000              
  26  0000              #pragma translator "holtek-gcc 4.6.4" "3.19" "build 20130711"
  27  0000              ; Rebuild 718
  28  0000              
  29  0000              ir equ [2]
  30  0000              mp equ [3]
  31  0000              sbp equ [4]
  32  0000              acc equ [5]
  33  0000              bp equ [11]
  34  0000              tblp equ [7]
  35  0000              tbhp equ [9]
  36  0000              status equ [10]
  37  0000              c equ [10].0
  38  0000              ac equ [10].1
  39  0000              z equ [10].2
  40  0000              ov equ [10].3
  41  0000              cz equ [10].6
  42  0000              sc equ [10].7
  43  0000              intc equ [17]
  44  0000              
  45  0000              extern ra:byte
  46  0000              extern rb:byte
  47  0000              extern rc:byte
  48  0000              extern rd:byte
  49  0000              extern re:byte
  50  0000              extern rf:byte
  51  0000              extern rg:byte
  52  0000              extern rh:byte
  53  0000              extern _Crom2Prom:near
  54  0000              extern _Crom2PromNext:near
  55  0000              
  56  0000              RAMBANK 0 @BITDATASEC, @BITDATASEC1
  57  0000              @HCCINIT	.section 'data'
  58  0000              @HCCINIT0	.section 'data'
  59  0000              @BITDATASEC	 .section 'data'
"File: main.ASM      Assembler  Version HGASM0202      Page 2

  60  0000              @BITDATASEC1	 .section 'data'
  61  0000              
  62  0000              #pragma debug scope 1 1
  63  0000              	extern __DELAY3:near
  64  0000              	extern __DELAYX3:near
  65  0000              	extern __DELAYX6:near
  66  0000              	extern __DELAYY5:near
  67  0000              	extern __DELAYY3:near
  68  0000              	extern _builtin_holtek_delay_2:byte
  69  0000              @crom	.section 'crom'
  70  0000              _LC0:
  71  0000              	db 048h,065h,06ch,06ch,06fh,020h,041h,044h,043h,03ah
  72  0005              	db 020h,00h
  73  0006              @crom	.section 'crom'
  74  0006              _LC1:
  75  0006              	db 0ah,00h
  76  0007              public _convert_integer_to_string
  77  0007              #pragma debug scope 2 1

  52  0007              #line 52 "c:\users\user\documents\htk_project\qbell_doorbell_mb_v1_2_f9\main.c"
  52  0000              _convert_integer_to_string .section 'code'
  52  0000              _convert_integer_to_string proc
  52  0000              public _convert_integer_to_string_2
  52  0000  0008[           local _convert_integer_to_string_2 db 8 dup(?)	; 4,4
            00
            ]
  52  0008              #pragma debug pointer 42 7 2
  52  0008              #pragma debug pointer 42 7 2
  52  0008              #pragma debug variable 42 2 _convert_integer_to_string_2+0 "str"
  52  0008              #pragma debug variable 10 2 _convert_integer_to_string_2+2 "number"
  52  0008              #pragma debug variable 10 2 _convert_integer_to_string_2+4 "i"
  56  0008              #line 56 "c:\users\user\documents\htk_project\qbell_doorbell_mb_v1_2_f9\main.c"
  56  0000  0F01        	mov a,1
  56  0001  0080     E  	mov rf,a
  56  0002  1F00     E  	clr rg
  56  0003  0700     R  	mov a,_convert_integer_to_string_2[2]
  56  0004  0500     R  	or a,_convert_integer_to_string_2[3]
  56  0005  3D0A        	sz z
  56  0006  2800     R  	jmp _L2
  56  0007              #line 56 "c:\users\user\documents\htk_project\qbell_doorbell_mb_v1_2_f9\main.c"
  56  0007  1F00     E  	clr rf
  56  0008  1F00     E  	clr rg
  56  0009              _L2:
  54  0009              #line 54 "c:\users\user\documents\htk_project\qbell_doorbell_mb_v1_2_f9\main.c"
  54  0009  0700     R  	mov a,_convert_integer_to_string_2[2]
  54  000A  0080     E  	mov rb,a
  54  000B  0700     R  	mov a,_convert_integer_to_string_2[3]
  54  000C  0080     E  	mov rc,a
  54  000D  1F00     E  	clr rd
  54  000E  1F00     E  	clr re
  54  000F              _L3:
  54  000F  0700     E  	mov a,rf
  54  0010  0300     E  	add a,rd
  54  0011  0080     R  	mov _convert_integer_to_string_2[6],a
  54  0012  0700     E  	mov a,rg
  54  0013  1300     E  	adc a,re
  54  0014  0080     R  	mov _convert_integer_to_string_2[7],a
  54  0015  1480     E  	inc rd
  54  0016  3D0A        	sz z
  54  0017  1480     E  	inc re
"File: main.c        Assembler  Version HGASM0202      Page 3

  58  0018              #line 58 "c:\users\user\documents\htk_project\qbell_doorbell_mb_v1_2_f9\main.c"
  58  0018  0700     E  	mov a,rb
  58  0019  0500     E  	or a,rc
  58  001A  3D0A        	sz z
  58  001B  2800     R  	jmp _L8
  61  001C              #line 61 "c:\users\user\documents\htk_project\qbell_doorbell_mb_v1_2_f9\main.c"
  61  001C  1F00     E  	clr _builtin_holtek_udivmodhi4_2[6]
  61  001D  0700     E  	mov a,rb  
  61  001E  0080     E  	mov _builtin_holtek_udivmodhi4_2[0],a  
  61  001F  0700     E  	mov a,rc  
  61  0020  0080     E  	mov _builtin_holtek_udivmodhi4_2[1],a
  61  0021  0F0A        	mov a,10  
  61  0022  0080     E  	mov _builtin_holtek_udivmodhi4_2[2],a  
  61  0023  1F00     E  	clr _builtin_holtek_udivmodhi4_2[3]
  61  0024  2000     E  	call _builtin_holtek_udivmodhi4
  61  0025  0700     E  	mov a,_builtin_holtek_udivmodhi4_2[0]  
  61  0026  0080     E  	mov rb,a  
  61  0027  0700     E  	mov a,_builtin_holtek_udivmodhi4_2[1]  
  61  0028  0080     E  	mov rc,a
  61  0029  2800     R  	jmp _L3
  61  002A              _L8:
  58  002A              #line 58 "c:\users\user\documents\htk_project\qbell_doorbell_mb_v1_2_f9\main.c"
  58  002A  1F00     R  	clr _convert_integer_to_string_2[4]
  58  002B  1F00     R  	clr _convert_integer_to_string_2[5]
  58  002C              _L5:
  64  002C              #line 64 "c:\users\user\documents\htk_project\qbell_doorbell_mb_v1_2_f9\main.c"
  64  002C  0700     R  	mov a,_convert_integer_to_string_2[4]
  64  002D  0200     R  	sub a,_convert_integer_to_string_2[6]
  64  002E  0700     R  	mov a,_convert_integer_to_string_2[5]
  64  002F  1200     R  	sbc a,_convert_integer_to_string_2[7]
  64  0030  3F0A        	sz cz
  64  0031  2800     R  	jmp _L9
  66  0032              #line 66 "c:\users\user\documents\htk_project\qbell_doorbell_mb_v1_2_f9\main.c"
  66  0032  0700     R  	mov a,_convert_integer_to_string_2[2]
  66  0033  0080     E  	mov rb,a
  66  0034  0700     R  	mov a,_convert_integer_to_string_2[3]
  66  0035  0080     E  	mov rc,a
  66  0036  1F00     E  	clr _builtin_holtek_udivmodhi4_2[6]
  66  0037  0700     E  	mov a,rb  
  66  0038  0080     E  	mov _builtin_holtek_udivmodhi4_2[0],a  
  66  0039  0700     E  	mov a,rc  
  66  003A  0080     E  	mov _builtin_holtek_udivmodhi4_2[1],a
  66  003B  0F0A        	mov a,10  
  66  003C  0080     E  	mov _builtin_holtek_udivmodhi4_2[2],a  
  66  003D  1F00     E  	clr _builtin_holtek_udivmodhi4_2[3]
  66  003E  2000     E  	call _builtin_holtek_udivmodhi4
  66  003F  0700     E  	mov a,_builtin_holtek_udivmodhi4_2[4]  
  66  0040  0080     E  	mov rd,a  
  66  0041  0700     E  	mov a,_builtin_holtek_udivmodhi4_2[5]  
  66  0042  0080     E  	mov re,a
  67  0043              #line 67 "c:\users\user\documents\htk_project\qbell_doorbell_mb_v1_2_f9\main.c"
  67  0043  1F00     E  	clr _builtin_holtek_udivmodhi4_2[6]
  67  0044  0700     E  	mov a,rb  
  67  0045  0080     E  	mov _builtin_holtek_udivmodhi4_2[0],a  
  67  0046  0700     E  	mov a,rc  
  67  0047  0080     E  	mov _builtin_holtek_udivmodhi4_2[1],a
  67  0048  0F0A        	mov a,10  
  67  0049  0080     E  	mov _builtin_holtek_udivmodhi4_2[2],a  
  67  004A  1F00     E  	clr _builtin_holtek_udivmodhi4_2[3]
  67  004B  2000     E  	call _builtin_holtek_udivmodhi4
"File: main.c        Assembler  Version HGASM0202      Page 4

  67  004C  0700     E  	mov a,_builtin_holtek_udivmodhi4_2[0]  
  67  004D  0080     R  	mov _convert_integer_to_string_2[2],a  
  67  004E  0700     E  	mov a,_builtin_holtek_udivmodhi4_2[1]  
  67  004F  0080     R  	mov _convert_integer_to_string_2[3],a
  67  0050  0700     R  	mov a,_convert_integer_to_string_2[6]
  67  0051  0300     R  	add a,_convert_integer_to_string_2[0]
  67  0052  0080     E  	mov rb,a
  67  0053  0700     R  	mov a,_convert_integer_to_string_2[7]
  67  0054  1300     R  	adc a,_convert_integer_to_string_2[1]
  67  0055  0080     E  	mov rc,a
  67  0056  0700     E  	mov a,rb
  67  0057  0200     R  	sub a,_convert_integer_to_string_2[4]
  67  0058  0080     E  	mov rb,a
  67  0059  0700     E  	mov a,rc
  67  005A  1200     R  	sbc a,_convert_integer_to_string_2[5]
  67  005B  0080     E  	mov rc,a
  68  005C              #line 68 "c:\users\user\documents\htk_project\qbell_doorbell_mb_v1_2_f9\main.c"
  68  005C  0F30        	mov a,48
  68  005D  0380     E  	addm a,rd
  68  005E  0FFF        	mov a,255
  68  005F  0300     E  	add a,rb
  68  0060  0083        	mov mp,a
  68  0061  0FFF        	mov a,255
  68  0062  1300     E  	adc a,rc
  68  0063  0084        	mov sbp,a
  68  0064  0700     E  	mov a,rd
  68  0065  0082        	mov ir,a
  64  0066              #line 64 "c:\users\user\documents\htk_project\qbell_doorbell_mb_v1_2_f9\main.c"
  64  0066  1480     R  	inc _convert_integer_to_string_2[4]
  64  0067  3D0A        	sz z
  64  0068  1480     R  	inc _convert_integer_to_string_2[5]
  64  0069  2800     R  	jmp _L5
  64  006A              _L9:
  70  006A              #line 70 "c:\users\user\documents\htk_project\qbell_doorbell_mb_v1_2_f9\main.c"
  70  006A  0F00     R  	mov a,low offset _LC0
  70  006B  0080     E  	mov _uart_printf_2[0],a
  70  006C  0F00     R  	mov a,high offset _LC0
  70  006D  0080     E  	mov _uart_printf_2[1],a
  70  006E  2000     E  	call _uart_printf
  71  006F              #line 71 "c:\users\user\documents\htk_project\qbell_doorbell_mb_v1_2_f9\main.c"
  71  006F  0700     R  	mov a,_convert_integer_to_string_2[0]
  71  0070  0080     E  	mov _uart_printf_2[0],a
  71  0071  0700     R  	mov a,_convert_integer_to_string_2[1]
  71  0072  0080     E  	mov _uart_printf_2[1],a
  71  0073  2000     E  	call _uart_printf
  72  0074              #line 72 "c:\users\user\documents\htk_project\qbell_doorbell_mb_v1_2_f9\main.c"
  72  0074  0F00     R  	mov a,low offset _LC1
  72  0075  0080     E  	mov _uart_printf_2[0],a
  72  0076  0F00     R  	mov a,high offset _LC1
  72  0077  0080     E  	mov _uart_printf_2[1],a
  72  0078  2000     E  	call _uart_printf
  73  0079              #line 73 "c:\users\user\documents\htk_project\qbell_doorbell_mb_v1_2_f9\main.c"
  73  0079  0700     R  	mov a,_convert_integer_to_string_2[4]
  73  007A  0300     R  	add a,_convert_integer_to_string_2[0]
  73  007B  0083        	mov mp,a
  73  007C  0700     R  	mov a,_convert_integer_to_string_2[5]
  73  007D  1300     R  	adc a,_convert_integer_to_string_2[1]
  73  007E  0084        	mov sbp,a
  73  007F  0F00        	mov a,0
  73  0080  0082        	mov ir,a
"File: main.c        Assembler  Version HGASM0202      Page 5

  73  0081  0003        	ret
  73  0082              _convert_integer_to_string endp
  73  0082              #line 73 "c:\users\user\documents\htk_project\qbell_doorbell_mb_v1_2_f9\main.c"
  73  0082              #pragma debug scope 1 1
  73  0082              public _delay
  73  0082              #pragma debug scope 3 1
  88  0082              #line 88 "c:\users\user\documents\htk_project\qbell_doorbell_mb_v1_2_f9\main.c"
  88  0000              _delay .section 'code'
  88  0000              _delay proc
  88  0000              public _delay_2
  88  0000  0002[           local _delay_2 db 2 dup(?)	; 2,0
            00
            ]
  88  0002              #pragma debug variable 10 3 _delay_2+0 "time"
  92  0002              #line 92 "c:\users\user\documents\htk_project\qbell_doorbell_mb_v1_2_f9\main.c"
  92  0000  1F00     E  	clr rb
  92  0001  1F00     E  	clr rc
  92  0002              _L11:
  92  0002              #line 92 "c:\users\user\documents\htk_project\qbell_doorbell_mb_v1_2_f9\main.c"
  92  0002  0700     E  	mov a,rb
  92  0003  0200     R  	sub a,_delay_2[0]
  92  0004  0700     E  	mov a,rc
  92  0005  1200     R  	sbc a,_delay_2[1]
  92  0006  3F0A        	sz cz
  92  0007  2800     R  	jmp _L10
  92  0008  0F05        	mov a,5
  92  0009  0080     E  	mov ra,a
  92  000A              _L16:
  88  000A              #line 88 "c:\users\user\documents\htk_project\qbell_doorbell_mb_v1_2_f9\main.c"
  88  000A  0F66        	mov a,102
  88  000B  0080     E  	mov rd,a
  88  000C              _L14:
  96  000C              #line 96 "c:\users\user\documents\htk_project\qbell_doorbell_mb_v1_2_f9\main.c"
  96  000C              ;# 96 "c:\users\user\documents\htk_project\qbell_doorbell_mb_v1_2_f9\main.c" 1
  96  000C  0000        	nop
  96  000D  1780     E  	sdz rd
  96  000E  2800     R  	jmp _L14
  96  000F  1780     E  	sdz ra
  96  0010  2800     R  	jmp _L16
  92  0011              #line 92 "c:\users\user\documents\htk_project\qbell_doorbell_mb_v1_2_f9\main.c"
  92  0011  1480     E  	inc rb
  92  0012  3D0A        	sz z
  92  0013  1480     E  	inc rc
  92  0014  2800     R  	jmp _L11
  92  0015              _L10:
  92  0015  0003        	ret
  92  0016              _delay endp
  92  0016              #line 92 "c:\users\user\documents\htk_project\qbell_doorbell_mb_v1_2_f9\main.c"
  92  0016              #pragma debug scope 1 1
  92  0016              public _sysInit
  92  0016              #pragma debug scope 4 1
 114  0016              #line 114 "c:\users\user\documents\htk_project\qbell_doorbell_mb_v1_2_f9\main.c"
 114  0000              _sysInit .section 'code'
 114  0000              _sysInit proc
 116  0000              #line 116 "c:\users\user\documents\htk_project\qbell_doorbell_mb_v1_2_f9\main.c"
 116  0000  2000     E  	call _uart_prot_init
 117  0001              #line 117 "c:\users\user\documents\htk_project\qbell_doorbell_mb_v1_2_f9\main.c"
 117  0001  2000     E  	call _adc_init
 118  0002              #line 118 "c:\users\user\documents\htk_project\qbell_doorbell_mb_v1_2_f9\main.c"
 118  0002  2000     E  	call _IIC_Init
"File: main.c        Assembler  Version HGASM0202      Page 6

 119  0003              #line 119 "c:\users\user\documents\htk_project\qbell_doorbell_mb_v1_2_f9\main.c"
 119  0003  2000     E  	call _ktd_en
 120  0004              #line 120 "c:\users\user\documents\htk_project\qbell_doorbell_mb_v1_2_f9\main.c"
 120  0004  2000     E  	call _ktd_clear
 121  0005              #line 121 "c:\users\user\documents\htk_project\qbell_doorbell_mb_v1_2_f9\main.c"
 121  0005  2000     E  	call _int_init
 121  0006  0003        	ret
 121  0007              _sysInit endp
 121  0007              #line 121 "c:\users\user\documents\htk_project\qbell_doorbell_mb_v1_2_f9\main.c"
 121  0007              #pragma debug scope 1 1
 121  0007              ___wdtc equ [26]
 121  0007              @crom	.section 'crom'
 121  0007              _LC2:
 121  0007              	db 045h,045h,050h,052h,04fh,04dh,020h,046h,075h,06eh
 121  000C              	db 063h,074h,069h,06fh,06eh,020h,054h,065h,073h,074h
 121  0011              	db 020h,052h,065h,061h,064h,020h,06fh,06eh,06ch,079h
 121  0016              	db 020h,0ah,00h
 121  0018              ___pb equ [37]
 121  0018              ___pbc equ [38]
 121  0018              @crom	.section 'crom'
 121  0018              _LC3:
 121  0018              	db 044h,065h,076h,069h,063h,065h,020h,041h,064h,064h
 121  001D              	db 072h,065h,073h,073h,020h,069h,073h,020h,06eh,06fh
 121  0022              	db 074h,020h,04dh,061h,074h,063h,068h,069h,06eh,067h
 121  0027              	db 020h,077h,069h,074h,068h,020h,044h,065h,076h,069h
 121  002C              	db 063h,065h,020h,041h,064h,064h,072h,065h,073h,073h
 121  0031              	db 020h,043h,06fh,070h,079h,0ah,00h
 121  0034              public _main
 121  0034              #pragma debug scope 5 1
 135  0034              #line 135 "c:\users\user\documents\htk_project\qbell_doorbell_mb_v1_2_f9\main.c"
 135  0034              IFDEF WITH_DEFAULT_STARTUP
 135  0034              extern _main_initial0:near
 135  0034              extern _main_startup:near
 135  0034              ENDIF
 135  0034              
 135  0034              ROMBANK 0 @start
 135  0000              @start .section com_l 'code'
 135  0000              _main_startup1:
 135  0000              @start .section com_e 'code'
 135  0000  2800     R  	jmp _main
 135  0001              
 135  0000              _main .section 'code'
 135  0000              _main proc
 136  0000              #line 136 "c:\users\user\documents\htk_project\qbell_doorbell_mb_v1_2_f9\main.c"
 136  0000  0FA8        	mov a,168
 136  0001  009A        	mov [26],a
 139  0002              #line 139 "c:\users\user\documents\htk_project\qbell_doorbell_mb_v1_2_f9\main.c"
 139  0002  2000     E  	call _Sys_init
 140  0003              #line 140 "c:\users\user\documents\htk_project\qbell_doorbell_mb_v1_2_f9\main.c"
 140  0003  2000     R  	call _sysInit
 142  0004              #line 142 "c:\users\user\documents\htk_project\qbell_doorbell_mb_v1_2_f9\main.c"
 142  0004  2000     E  	call _RF_Init
 143  0005              #line 143 "c:\users\user\documents\htk_project\qbell_doorbell_mb_v1_2_f9\main.c"
 143  0005  2000     E  	call _RF_Parameter_loading
 145  0006              #line 145 "c:\users\user\documents\htk_project\qbell_doorbell_mb_v1_2_f9\main.c"
 145  0006  0FCD        	mov a,205
 145  0007  0080     E  	mov _SpiWriteRegCMD_2[0],a
 145  0008  0F07        	mov a,7
 145  0009  2000     E  	call _SpiWriteRegCMD
 146  000A              #line 146 "c:\users\user\documents\htk_project\qbell_doorbell_mb_v1_2_f9\main.c"
"File: main.c        Assembler  Version HGASM0202      Page 7

 146  000A  0F05        	mov a,5
 146  000B  0080     E  	mov _BC3602_T[0],a
 149  000C              #line 149 "c:\users\user\documents\htk_project\qbell_doorbell_mb_v1_2_f9\main.c"
 149  000C  0F00     R  	mov a,low offset _LC2
 149  000D  0080     E  	mov _uart_printf_2[0],a
 149  000E  0F00     R  	mov a,high offset _LC2
 149  000F  0080     E  	mov _uart_printf_2[1],a
 149  0010  2000     E  	call _uart_printf
 151  0011              #line 151 "c:\users\user\documents\htk_project\qbell_doorbell_mb_v1_2_f9\main.c"
 151  0011              ;# 151 "c:\users\user\documents\htk_project\qbell_doorbell_mb_v1_2_f9\main.c" 1
 151  0011  0001        	clr wdt
 152  0012              #line 152 "c:\users\user\documents\htk_project\qbell_doorbell_mb_v1_2_f9\main.c"
 152  0012  0F0A        	mov a,10
 152  0013  0080     R  	mov _delay_2[0],a
 152  0014  1F00     R  	clr _delay_2[1]
 152  0015  2000     R  	call _delay
 155  0016              #line 155 "c:\users\user\documents\htk_project\qbell_doorbell_mb_v1_2_f9\main.c"
 155  0016  2000     E  	call _app_eeprom_addr_check
 156  0017              #line 156 "c:\users\user\documents\htk_project\qbell_doorbell_mb_v1_2_f9\main.c"
 156  0017  0F0A        	mov a,10
 156  0018  0080     R  	mov _delay_2[0],a
 156  0019  1F00     R  	clr _delay_2[1]
 156  001A  2000     R  	call _delay
 158  001B              #line 158 "c:\users\user\documents\htk_project\qbell_doorbell_mb_v1_2_f9\main.c"
 158  001B  3625        	clr [37].4
 159  001C              #line 159 "c:\users\user\documents\htk_project\qbell_doorbell_mb_v1_2_f9\main.c"
 159  001C  3226        	set [38].4
 159  001D              _L19:
 163  001D              #line 163 "c:\users\user\documents\htk_project\qbell_doorbell_mb_v1_2_f9\main.c"
 163  001D              ;# 163 "c:\users\user\documents\htk_project\qbell_doorbell_mb_v1_2_f9\main.c" 1
 163  001D  0001        	clr wdt
 169  001E              #line 169 "c:\users\user\documents\htk_project\qbell_doorbell_mb_v1_2_f9\main.c"
 169  001E  1080     E  	sz _intF[39]
 169  001F  2800     R  	jmp _L20
 170  0020              #line 170 "c:\users\user\documents\htk_project\qbell_doorbell_mb_v1_2_f9\main.c"
 170  0020  2000     E  	call _app
 170  0021  2800     R  	jmp _L19
 170  0022              _L20:
 173  0022              #line 173 "c:\users\user\documents\htk_project\qbell_doorbell_mb_v1_2_f9\main.c"
 173  0022  0F00     R  	mov a,low offset _LC3
 173  0023  0080     E  	mov _uart_printf_2[0],a
 173  0024  0F00     R  	mov a,high offset _LC3
 173  0025  0080     E  	mov _uart_printf_2[1],a
 173  0026  2000     E  	call _uart_printf
 174  0027              #line 174 "c:\users\user\documents\htk_project\qbell_doorbell_mb_v1_2_f9\main.c"
 174  0027  0F03        	mov a,3
 174  0028  2000     E  	call _rgb_blink
 175  0029              #line 175 "c:\users\user\documents\htk_project\qbell_doorbell_mb_v1_2_f9\main.c"
 175  0029  0FE8        	mov a,-24
 175  002A  0080     R  	mov _delay_2[0],a
 175  002B  0F03        	mov a,3
 175  002C  0080     R  	mov _delay_2[1],a
 175  002D  2000     R  	call _delay
 175  002E  2800     R  	jmp _L19
 175  002F  2800     R  	jmp $
 175  0030              _main endp
 175  0030              
 175  0030              @dummy endp
 175  0030              
 175  0030              #line 175 "c:\users\user\documents\htk_project\qbell_doorbell_mb_v1_2_f9\main.c"
"File: main.c        Assembler  Version HGASM0202      Page 8

 175  0030              #pragma debug scope 1 1
  32  0030              #line 32 "c:\users\user\documents\htk_project\qbell_doorbell_mb_v1_2_f9\main.c"
  32  0030              public _ADC_Value
  32  0000              @HCCINIT0_ADC_Value .section 'data'
  32  0000  0002[       _ADC_Value	db 2 dup(0)
            00
            ]
  32  0002              #pragma debug variable 10 1 _ADC_Value "ADC_Value"
  32  0002              
  32  0000              @HCCINIT .section 'data'
  30  0000              #line 30 "c:\users\user\documents\htk_project\qbell_doorbell_mb_v1_2_f9\main.c"
  30  0000              public _a
  30  0000              @HCCINIT0_a .section 'data'
  30  0000  0002[       _a	db 2 dup(0)
            00
            ]
  30  0002              #pragma debug pointer 43 7 1
  30  0002              #pragma debug pointer 43 7 1
  30  0002              #pragma debug variable 43 1 _a "a"
  30  0002              
  30  0000              @HCCINIT .section 'data'
  30  0000              #pragma debug struct_end
  30  0000              #pragma debug struct_end
  30  0000              #pragma debug union_end
  30  0000              #pragma debug union_end
  30  0000              #pragma debug variable 45 1 ___wdtc "__wdtc" 1
  30  0000              #pragma debug struct_end
  30  0000              #pragma debug struct_end
  30  0000              #pragma debug union_end
  30  0000              #pragma debug union_end
  30  0000              #pragma debug variable 47 1 ___pb "__pb" 1
  30  0000              #pragma debug struct_end
  30  0000              #pragma debug struct_end
  30  0000              #pragma debug union_end
  30  0000              #pragma debug union_end
  30  0000              #pragma debug variable 49 1 ___pbc "__pbc" 1
  30  0000              
  30  0000              ; output external variables
  30  0000              extern _intF:byte
  30  0000              extern _BC3602_T:byte
 135  0000              #line 135 "c:\users\user\documents\htk_project\qbell_doorbell_mb_v1_2_f9\main.c"
 135  0000              @code .section at 0 'code'
 135  0000  2800     R  	jmp _main_startup1
 135  0001              
 135  0001              extern _builtin_holtek_udivmodhi4_2:byte
 135  0001              extern _builtin_holtek_udivmodhi4:near
 135  0001              extern _uart_printf_2:byte
 135  0001              extern _uart_printf:near
 135  0001              extern _uart_prot_init:near
 135  0001              extern _adc_init:near
 135  0001              extern _IIC_Init:near
 135  0001              extern _ktd_en:near
 135  0001              extern _ktd_clear:near
 135  0001              extern _int_init:near
 135  0001              extern _Sys_init:near
 135  0001              extern _RF_Init:near
 135  0001              extern _RF_Parameter_loading:near
 135  0001              extern _SpiWriteRegCMD_2:byte
 135  0001              extern _SpiWriteRegCMD:near
 135  0001              extern _app_eeprom_addr_check:near
"File: main.c        Assembler  Version HGASM0202      Page 9

 135  0001              extern _app:near
 135  0001              extern _rgb_blink:near
 135  0001              
 135  0001              ; 
 135  0001              ; Generated by holtek-gcc v3.19, Tue Oct 18 14:54:57 2022
 135  0001              ; Rebuild 718
 135  0001              ; end of file


        0 Errors, 0